(lp0
((F-0.006713385277979732
F-0.0037757489388379937
tp1
F909.52481329716
F1470682708.73
tp2
a((F-0.006552478796103883
F-0.0044273263395775584
tp3
F908.9764015369569
F1470682708.746
tp4
a((F-0.006356076316169958
F-0.004913439966245812
tp5
F909.8159302439171
F1470682708.76
tp6
a((F-0.006691712415932687
F-0.005952380526977401
tp7
F905.2818039167972
F1470682708.776
tp8
a((F-0.0059203440464367365
F-0.00614153387971062
tp9
F910.8336752010181
F1470682708.793
tp10
a((F-0.006022129268857006
F-0.006655372374354643
tp11
F907.5952256423125
F1470682708.809
tp12
a((F-0.00593933705338317
F-0.007014479536191564
tp13
F908.8253487317903
F1470682708.825
tp14
a((F-0.005946403607743956
F-0.006832906821752919
tp15
F902.9298913851026
F1470682708.841
tp16
a((F-0.0058235917454894275
F-0.006840120669143811
tp17
F898.8540310414098
F1470682708.857
tp18
a((F-0.006351170453225061
F-0.006672916503214293
tp19
F901.0377777186969
F1470682708.873
tp20
a((F-0.005977085058012096
F-0.006292465901882306
tp21
F905.8162920138668
F1470682708.889
tp22
a((F-0.006347925494065131
F-0.005853205823457821
tp23
F908.058029437078
F1470682708.905
tp24
a((F-0.006451877562506347
F-0.0051983039806808755
tp25
F902.7401959891632
F1470682708.921
tp26
a((F-0.007026651307400399
F-0.004556182130664232
tp27
F900.4828624384731
F1470682708.937
tp28
a((F-0.007274374394174727
F-0.003814962667920978
tp29
F907.7168607327612
F1470682708.952
tp30
a((F-0.006877635505195394
F-0.0026053708621311357
tp31
F901.2172245846787
F1470682708.969
tp32
a((F-0.007360973560585913
F-0.0018270129719937809
tp33
F903.7950372525266
F1470682708.985
tp34
a((F-0.0066070660831964965
F-0.0013354998344807978
tp35
F904.5852660590369
F1470682709.0
tp36
a((F-0.006974194826539065
F-0.0004672874759411786
tp37
F903.9769532641899
F1470682709.016
tp38
a((F-0.007427980212093324
F-0.00021529690348758194
tp39
F910.062187037252
F1470682709.032
tp40
a((F-0.007502530091624082
F-2.521459227159495e-05
tp41
F906.3602099131745
F1470682709.048
tp42
a((F-0.00740945240396149
F0.0005801071310350471
tp43
F908.9729893387337
F1470682709.064
tp44
a((F-0.007381444714224191
F0.0010614646040213338
tp45
F904.7722643824202
F1470682709.08
tp46
a((F-0.00802031734344032
F0.0010918878199753961
tp47
F902.7728338365698
F1470682709.096
tp48
a((F-0.007872483376515799
F0.0012848261337439432
tp49
F909.7090762142298
F1470682709.112
tp50
a((F-0.00830059185964112
F0.0016849671312761114
tp51
F909.2799044344245
F1470682709.128
tp52
a((F-0.007726211571723982
F0.001679647913429256
tp53
F908.3145548805439
F1470682709.145
tp54
a((F-0.008153313917370788
F0.0017843694351774063
tp55
F902.4508977814203
F1470682709.16
tp56
a((F-0.008549229068887438
F0.002059114833088449
tp57
F904.1717726397852
F1470682709.176
tp58
a((F-0.008724051276614237
F0.002262722644749145
tp59
F903.060134640455
F1470682709.193
tp60
a((F-0.007893548948916094
F0.002535375439599146
tp61
F906.552514916777
F1470682709.209
tp62
a((F-0.008588943357604828
F0.002506715969358741
tp63
F902.7825824158786
F1470682709.225
tp64
a((F-0.008346080242936036
F0.0022518593425572236
tp65
F907.050653229421
F1470682709.241
tp66
a((F-0.008322775068357359
F0.002599325659940224
tp67
F904.2378892604966
F1470682709.257
tp68
a((F-0.008407797937003218
F0.0024466417336863303
tp69
F908.1181812021559
F1470682709.273
tp70
a((F-0.008439754422407466
F0.0025808894906952226
tp71
F908.1302432847211
F1470682709.289
tp72
a((F-0.008286897769547408
F0.002647004552206277
tp73
F905.6511831293083
F1470682709.305
tp74
a((F-0.008732884231408817
F0.0018220416766138038
tp75
F909.4833868688245
F1470682709.321
tp76
a((F-0.008015620797598459
F0.001449896724811669
tp77
F906.8099683047426
F1470682709.337
tp78
a((F-0.007801549117907782
F0.001100165277017005
tp79
F905.767070488283
F1470682709.353
tp80
a((F-0.007805212840168121
F0.0006479899262700415
tp81
F907.1838716437035
F1470682709.368
tp82
a((F-0.008198129186878162
F0.00020026657828143846
tp83
F909.2366627473344
F1470682709.384
tp84
a((F-0.007924026149374085
F-0.0005391619888837941
tp85
F906.158201178625
F1470682709.401
tp86
a((F-0.008528823342183276
F-0.0014197708702262963
tp87
F906.6448660571109
F1470682709.416
tp88
a((F-0.008405965744456111
F-0.0019683045051867077
tp89
F903.5414282436989
F1470682709.432
tp90
a((F-0.009255189351524501
F-0.0024498176837458928
tp91
F903.1357498373677
F1470682709.448
tp92
a((F-0.008510309371170798
F-0.00300804223122575
tp93
F903.4936667113509
F1470682709.465
tp94
a((F-0.00891795935892276
F-0.0031353805984803158
tp95
F898.176618069486
F1470682709.481
tp96
a((F-0.009451862589160455
F-0.0034752197525570834
tp97
F905.5799008864133
F1470682709.496
tp98
a((F-0.008748179491331345
F-0.003400542462748856
tp99
F905.8460177352679
F1470682709.512
tp100
a((F-0.008903781673000466
F-0.00339314556560957
tp101
F909.0593357566004
F1470682709.528
tp102
a((F-0.008390834219683828
F-0.0029766404788785688
tp103
F902.6115064132517
F1470682709.545
tp104
a((F-0.008300930038772534
F-0.0028721124776591406
tp105
F908.2589839945862
F1470682709.56
tp106
a((F-0.008538602410268513
F-0.0024181437393742873
tp107
F905.0193675118794
F1470682709.576
tp108
a((F-0.008322847709259229
F-0.001883698314896377
tp109
F906.7925507315556
F1470682709.593
tp110
a((F-0.008658677438481503
F-0.0012158037346482863
tp111
F912.3299157423231
F1470682709.608
tp112
a((F-0.008832644107864895
F-0.0006132407205200027
tp113
F904.885952939954
F1470682709.625
tp114
a((F-0.00914187283101204
F0.00032561101866106137
tp115
F906.7361200278823
F1470682709.641
tp116
a((F-0.008841320724082925
F0.0013006288733212043
tp117
F901.3922565107639
F1470682709.657
tp118
a((F-0.008627093943214134
F0.0024570839578998186
tp119
F906.2998513685558
F1470682709.673
tp120
a((F-0.007847062034787022
F0.0038123779879383982
tp121
F903.6998374526263
F1470682709.689
tp122
a((F-0.007705042776135385
F0.00515679820095244
tp123
F905.5880349062456
F1470682709.705
tp124
a((F-0.007544160658599599
F0.006374188135674024
tp125
F906.5805775452019
F1470682709.721
tp126
a((F-0.0072866505704541566
F0.007497782151159742
tp127
F909.5189561815494
F1470682709.736
tp128
a((F-0.007117386434366905
F0.00864422443646258
tp129
F907.6734947748341
F1470682709.753
tp130
a((F-0.00684385020263986
F0.009460013396298282
tp131
F912.0553195172838
F1470682709.769
tp132
a((F-0.00723936200853194
F0.009526427401571115
tp133
F914.9938939603152
F1470682709.785
tp134
a((F-0.006993463024153256
F0.008953932222995876
tp135
F908.7084373429961
F1470682709.8
tp136
a((F-0.007035823501811957
F0.009038028165366443
tp137
F905.7464054304567
F1470682709.817
tp138
a((F-0.007178616481645017
F0.009024056499296513
tp139
F906.3072094514737
F1470682709.832
tp140
a((F-0.007361209481467972
F0.00921710199418018
tp141
F909.0986185390439
F1470682709.849
tp142
a((F-0.006951881321177302
F0.009436939616989895
tp143
F907.2154894659566
F1470682709.865
tp144
a((F-0.007055714846757361
F0.009168397462924568
tp145
F905.2970575186642
F1470682709.88
tp146
a((F-0.0073050513381531885
F0.00906954326145729
tp147
F910.2035514476997
F1470682709.897
tp148
a((F-0.006560050293951463
F0.009797149221673808
tp149
F906.265156887768
F1470682709.912
tp150
a((F-0.007000553790415148
F0.010329398032363908
tp151
F909.0421434108196
F1470682709.929
tp152
a((F-0.007232054919700685
F0.010864321692617938
tp153
F911.3320875474808
F1470682709.945
tp154
a((F-0.006742280036401425
F0.011393544207286723
tp155
F911.0706731712189
F1470682709.96
tp156
a((F-0.006919216757461161
F0.011848219691011295
tp157
F908.0308040337829
F1470682709.976
tp158
a((F-0.006558678407053682
F0.012134344756393163
tp159
F906.309619517395
F1470682709.993
tp160
a((F-0.006688016888802666
F0.011998837787228545
tp161
F907.0316189676271
F1470682710.009
tp162
a((F-0.00700135090006324
F0.012298205189319447
tp163
F900.1053932104879
F1470682710.025
tp164
a((F-0.006710382328711412
F0.012747978172465224
tp165
F899.8347734782265
F1470682710.041
tp166
a((F-0.006576889547026637
F0.012993989158504736
tp167
F901.3204446279561
F1470682710.057
tp168
a((F-0.00660813561476673
F0.01309791977264723
tp169
F900.5973862167374
F1470682710.073
tp170
a((F-0.006693443416926739
F0.014198014426096021
tp171
F902.3607342160756
F1470682710.089
tp172
a((F-0.006917092696592729
F0.01561876848014127
tp173
F906.868297148183
F1470682710.105
tp174
a((F-0.006475442811390385
F0.017833024682375333
tp175
F903.9889218176129
F1470682710.121
tp176
a((F-0.0067331740296475845
F0.019081468536844594
tp177
F906.9270680913141
F1470682710.137
tp178
a((F-0.006272260260445244
F0.019925402355942968
tp179
F903.4008696155267
F1470682710.152
tp180
a((F-0.006443532214603021
F0.02077434040706544
tp181
F902.8355098952068
F1470682710.169
tp182
a((F-0.006031158923820534
F0.02154347482069659
tp183
F902.8663910907147
F1470682710.185
tp184
a((F-0.006369317015215603
F0.022119466578616524
tp185
F906.5477212449916
F1470682710.2
tp186
a((F-0.005900437858279726
F0.022842190264698754
tp187
F902.5036563134156
F1470682710.216
tp188
a((F-0.0052248046818227515
F0.024194033148752625
tp189
F895.2612646295665
F1470682710.232
tp190
a((F-0.005461350505180202
F0.02447146479757995
tp191
F903.0771622544737
F1470682710.249
tp192
a((F-0.00570040895491242
F0.024749221844377268
tp193
F906.473556572512
F1470682710.265
tp194
a((F-0.005599631397098704
F0.02498590581398324
tp195
F909.7878790488589
F1470682710.28
tp196
a((F-0.004947735358020251
F0.02522542668946101
tp197
F910.1939551323612
F1470682710.296
tp198
a((F-0.004718751493579244
F0.026142263566372236
tp199
F912.518959407768
F1470682710.312
tp200
a((F-0.005005138758679029
F0.026625822553781875
tp201
F909.2183819521913
F1470682710.328
tp202
a((F-0.0045528027785242675
F0.02685140786128097
tp203
F907.4496054283516
F1470682710.345
tp204
a((F-0.003206237438552683
F0.026822600416643416
tp205
F902.1135636142379
F1470682710.361
tp206
a((F-0.0032076103386142196
F0.027433807440769613
tp207
F907.2073405187605
F1470682710.377
tp208
a((F-0.00258980322596146
F0.02846400477658356
tp209
F907.4726365320407
F1470682710.393
tp210
a((F-0.002683680094994099
F0.029565980555965453
tp211
F908.5154727878231
F1470682710.409
tp212
a((F-0.0025634115786377326
F0.030026589026003855
tp213
F906.7059748372103
F1470682710.425
tp214
a((F-0.0025712154987690087
F0.030535132681479393
tp215
F895.0101870326284
F1470682710.441
tp216
a((F-0.0020559404455212644
F0.030119954062876923
tp217
F892.3602039652767
F1470682710.457
tp218
a((F-0.0011538588073587907
F0.029476362040799297
tp219
F895.3518108911849
F1470682710.473
tp220
a((F-0.0011775703039021835
F0.029180090278126646
tp221
F893.8150003330568
F1470682710.488
tp222
a((F-0.0013591199042197705
F0.028112514239628603
tp223
F895.99781798515
F1470682710.505
tp224
a((F-0.001186436293221613
F0.027511886034503504
tp225
F889.11605312856
F1470682710.52
tp226
a((F-0.0009529309172543155
F0.025554400822101284
tp227
F903.3584630472928
F1470682710.536
tp228
a((F-0.001307459494453003
F0.024519389561737957
tp229
F905.8525396020384
F1470682710.553
tp230
a((F-0.0015644507057833638
F0.02459679471995153
tp231
F913.0928915366878
F1470682710.568
tp232
a((F-0.0017607171823330664
F0.025525158383059736
tp233
F910.2349069914376
F1470682710.584
tp234
a((F-0.001919244198742393
F0.026193300957418317
tp235
F909.898635990038
F1470682710.6
tp236
a((F-0.0020065312623507438
F0.025923289321582228
tp237
F902.3864589398096
F1470682710.616
tp238
a((F-0.0015352983345341142
F0.025321712036273203
tp239
F907.5447242231567
F1470682710.632
tp240
a((F-0.0018877028749784799
F0.025752337888169635
tp241
F909.6226161965224
F1470682710.649
tp242
a((F-0.0016655510612634146
F0.027563592155575415
tp243
F915.0666590739925
F1470682710.664
tp244
a((F-0.0018552672632077508
F0.029830587656090292
tp245
F914.6665352709514
F1470682710.68
tp246
a((F-0.0017080688679900985
F0.032162863139868623
tp247
F910.1723934705697
F1470682710.696
tp248
a((F-0.0018908110840285919
F0.03302824829474175
tp249
F920.1728659991356
F1470682710.712
tp250
a((F-0.0020999878322912687
F0.0339833404453432
tp251
F917.0279724400516
F1470682710.728
tp252
a((F-0.002159612818922596
F0.03525277724333635
tp253
F922.4188749959842
F1470682710.744
tp254
a((F-0.0019737470063007105
F0.0365419934301732
tp255
F935.8587738405237
F1470682710.76
tp256
a((F-0.0004447346491184783
F0.038757454689876084
tp257
F949.9988485194725
F1470682710.776
tp258
a((F-0.00045563877097337083
F0.03965876184800573
tp259
F962.326018583338
F1470682710.792
tp260
a((F-0.0009973296174762391
F0.04146634859047367
tp261
F942.0574532871015
F1470682710.808
tp262
a((F-0.0010143417447502016
F0.04253235696483228
tp263
F903.379392068367
F1470682710.824
tp264
a((F-0.0009099990169234565
F0.042980402456285836
tp265
F894.916877078064
F1470682710.841
tp266
a((F-0.0013537385448721007
F0.043604623256014295
tp267
F890.9491134588598
F1470682710.856
tp268
a((F-0.0017236805589409215
F0.044331041149851716
tp269
F889.2131689843866
F1470682710.872
tp270
a((F-0.0029904643092243965
F0.04473169087905186
tp271
F899.690867170319
F1470682710.888
tp272
a((F-0.003045936099016265
F0.04524888271103733
tp273
F905.4953353555195
F1470682710.904
tp274
a((F-0.0029665412494447097
F0.04645843126355961
tp275
F894.4867933629521
F1470682710.92
tp276
a((F-0.003407522067553362
F0.046719547481863924
tp277
F906.3363575319217
F1470682710.936
tp278
a((F-0.003298353595623607
F0.04682797843798953
tp279
F925.2087624044597
F1470682710.952
tp280
a((F-0.004389179688567392
F0.04745581643081385
tp281
F912.113270108207
F1470682710.969
tp282
a((F-0.005036306277524793
F0.04837518901052622
tp283
F891.0788273468306
F1470682710.985
tp284
a((F-0.0057405312803899535
F0.048689907008435986
tp285
F887.2247810506499
F1470682711.0
tp286
a((F-0.004826719898128304
F0.049071977926387865
tp287
F905.0108306690881
F1470682711.016
tp288
a((F-0.005897969013591934
F0.049347206758944266
tp289
F920.2906195318858
F1470682711.033
tp290
a((F-0.006771421941695575
F0.0495111801789068
tp291
F919.4029185129677
F1470682711.048
tp292
a((F-0.006682378223603993
F0.04990429456029515
tp293
F911.453001005711
F1470682711.064
tp294
a((F-0.006110765214268974
F0.05087320126274329
tp295
F893.9214418891693
F1470682711.081
tp296
a((F-0.0060902124837504705
F0.050718811348045637
tp297
F903.0942556693856
F1470682711.096
tp298
a((F-0.005791137018429383
F0.05071630808752075
tp299
F907.7577714653116
F1470682711.112
tp300
a((F-0.006444584603881999
F0.05115366353648377
tp301
F893.7494032910143
F1470682711.128
tp302
a((F-0.0051500562467413635
F0.051176166691011875
tp303
F884.8212334922252
F1470682711.144
tp304
a((F-0.004209525605437255
F0.051186522782941425
tp305
F901.5951938543035
F1470682711.16
tp306
a((F-0.0035444270939906817
F0.051503409486744214
tp307
F906.0135621818821
F1470682711.176
tp308
a((F-0.0025135434704173323
F0.05179088517121577
tp309
F900.4288186840363
F1470682711.192
tp310
a((F-0.0008571167687556119
F0.05171990033873511
tp311
F903.0735764988013
F1470682711.209
tp312
a((F-0.0001451008542632296
F0.05123258910726558
tp313
F903.2620792641067
F1470682711.224
tp314
a((F0.00012531892266464344
F0.05129183333941926
tp315
F905.6342876662479
F1470682711.24
tp316
a((F0.0014110243084301923
F0.05094654968137263
tp317
F910.4747403396052
F1470682711.256
tp318
a((F0.0016710462977556927
F0.05110821440956764
tp319
F905.0875475171283
F1470682711.272
tp320
a((F0.0021819179296930363
F0.05051707711963266
tp321
F913.2009863585815
F1470682711.288
tp322
a((F0.0029811750551144178
F0.05054820897823545
tp323
F909.811147551392
F1470682711.305
tp324
a((F0.0025651407632786716
F0.049488258593784876
tp325
F922.5117253358866
F1470682711.32
tp326
a((F0.003609648582172484
F0.04983188108332751
tp327
F923.9535666765573
F1470682711.337
tp328
a((F0.004016836082063673
F0.049421642462170595
tp329
F920.5116104792926
F1470682711.352
tp330
a((F0.004153832353899031
F0.0498317352536249
tp331
F902.663992171904
F1470682711.368
tp332
a((F0.0039061560063303577
F0.049371600444457826
tp333
F902.134296221597
F1470682711.385
tp334
a((F0.0040107898864310725
F0.048506398975865075
tp335
F902.5535704685483
F1470682711.4
tp336
a((F0.004985911969002624
F0.04844681504145056
tp337
F889.8446978108084
F1470682711.417
tp338
a((F0.004951912638971048
F0.04762055353235294
tp339
F895.8577055108096
F1470682711.433
tp340
a((F0.005145482457952285
F0.04722095700642919
tp341
F888.9694219247338
F1470682711.448
tp342
a((F0.005944021686418992
F0.04642063025073168
tp343
F885.2621149679499
F1470682711.465
tp344
a((F0.006596633562203354
F0.04501045830859735
tp345
F884.1735689310683
F1470682711.48
tp346
a((F0.007350493601866693
F0.04351934179982794
tp347
F888.9283685636442
F1470682711.497
tp348
a((F0.006675640800391592
F0.04202870376041514
tp349
F899.2967559469103
F1470682711.513
tp350
a((F0.006109023742018817
F0.04062352584606513
tp351
F889.044784766417
F1470682711.528
tp352
a((F0.0038141452981164487
F0.03725848886232912
tp353
F905.8267429966286
F1470682711.545
tp354
a((F0.0022919075360745586
F0.03365587383242309
tp355
F929.3606633770293
F1470682711.561
tp356
a((F0.0013348473666174518
F0.028797817912291485
tp357
F930.9393357006979
F1470682711.577
tp358
a((F5.6435606581114924e-05
F0.02375673087651626
tp359
F925.1361095292798
F1470682711.593
tp360
a((F-0.0005564973615177045
F0.019714302307749426
tp361
F912.8744851759895
F1470682711.608
tp362
a((F-0.0011088501766258654
F0.015174295309691763
tp363
F910.8269395674411
F1470682711.625
tp364
a((F-0.0013271476497781107
F0.011300765930451189
tp365
F905.633484107305
F1470682711.64
tp366
a((F-0.0017682626993026584
F0.007326839832749449
tp367
F903.8837306203885
F1470682711.657
tp368
a((F-0.00284777200875
F0.00338004388150003
tp369
F907.3375706563263
F1470682711.673
tp370
a((F-0.00315769007475096
F-0.0006638253831669365
tp371
F912.8615756951656
F1470682711.689
tp372
a((F-0.004233047643227303
F-0.0040162680035945985
tp373
F920.6719386606491
F1470682711.705
tp374
a((F-0.005233001736232134
F-0.006622287919734891
tp375
F921.481091636808
F1470682711.72
tp376
a((F-0.00564583220959221
F-0.008779978470717117
tp377
F926.9829780848283
F1470682711.736
tp378
a((F-0.006817367411977108
F-0.011224137571263096
tp379
F929.148653448459
F1470682711.752
tp380
a((F-0.007173846386347305
F-0.013310305327354796
tp381
F935.3600795869747
F1470682711.768
tp382
a((F-0.007513703398320219
F-0.015699239354746514
tp383
F935.3617621230956
F1470682711.784
tp384
a((F-0.007861915322203561
F-0.018349528686266943
tp385
F928.6155850830021
F1470682711.801
tp386
a((F-0.00856305341371046
F-0.021284049639867936
tp387
F926.9218223561887
F1470682711.817
tp388
a((F-0.008880075816132097
F-0.02488634647217945
tp389
F945.8415172945722
F1470682711.833
tp390
a((F-0.009530479617850444
F-0.028111827829125264
tp391
F948.0543917740101
F1470682711.849
tp392
a((F-0.010188900217776317
F-0.030556863300536252
tp393
F942.6919971789483
F1470682711.864
tp394
a((F-0.011799218925759199
F-0.032675785669287936
tp395
F940.6481234720243
F1470682711.88
tp396
a((F-0.011302058439709677
F-0.03484372203481538
tp397
F939.2827255059217
F1470682711.896
tp398
a((F-0.011229518695173198
F-0.036462529091658764
tp399
F954.5862152744004
F1470682711.912
tp400
a((F-0.01132013027736904
F-0.038011699970507476
tp401
F957.9064212540087
F1470682711.929
tp402
a((F-0.010777263333170087
F-0.039326326863514775
tp403
F962.236563765631
F1470682711.945
tp404
a((F-0.010085770381355398
F-0.0411623722390605
tp405
F953.8112061403415
F1470682711.961
tp406
a((F-0.009322104376750143
F-0.04182109117479533
tp407
F956.7273884884097
F1470682711.977
tp408
a((F-0.008256939902726237
F-0.04296399001507365
tp409
F947.3089879458639
F1470682711.992
tp410
a((F-0.007793950628933053
F-0.043813334038710766
tp411
F930.7189853236391
F1470682712.009
tp412
a((F-0.006949489155192032
F-0.044109944151971656
tp413
F915.4457769776093
F1470682712.024
tp414
a((F-0.006701196032416402
F-0.04456417761783154
tp415
F907.2988451539331
F1470682712.04
tp416
a((F-0.006315294123191025
F-0.045471309055047746
tp417
F888.7895533184374
F1470682712.056
tp418
a((F-0.0062523654788668856
F-0.04607244839371995
tp419
F869.190138668563
F1470682712.072
tp420
a((F-0.006696522110099478
F-0.045506266644361845
tp421
F860.2815604880881
F1470682712.088
tp422
a((F-0.0065903694496944705
F-0.0453481152280143
tp423
F843.7334107634729
F1470682712.104
tp424
a((F-0.0073954977735455245
F-0.04479585496101993
tp425
F838.8340392463159
F1470682712.12
tp426
a((F-0.006379077026489682
F-0.044503379832677055
tp427
F848.8569832685662
F1470682712.137
tp428
a((F-0.007353643033469386
F-0.04473843088693935
tp429
F856.1677424640335
F1470682712.151
tp430
a((F-0.008075534153345873
F-0.04460351056036947
tp431
F867.9191172877435
F1470682712.168
tp432
a((F-0.008389638752413553
F-0.044630311973937506
tp433
F877.2870186091212
F1470682712.185
tp434
a((F-0.007648096272094279
F-0.04395226003318391
tp435
F883.2136564365269
F1470682712.201
tp436
a((F-0.008311229548907551
F-0.04360283264766805
tp437
F893.0378226527132
F1470682712.216
tp438
a((F-0.008703957692622616
F-0.043319869336947425
tp439
F888.4003524352896
F1470682712.232
tp440
a((F-0.008528321836711537
F-0.042198000289358856
tp441
F903.3316811323086
F1470682712.248
tp442
a((F-0.008931385469796955
F-0.04193257289726911
tp443
F904.6943867091315
F1470682712.264
tp444
a((F-0.009280955663491377
F-0.04131667940525436
tp445
F908.7470219459625
F1470682712.279
tp446
a((F-0.010168393713635402
F-0.04100633314624606
tp447
F905.8640504322378
F1470682712.297
tp448
a((F-0.010236196734416801
F-0.041364540642429934
tp449
F902.5388542448711
F1470682712.312
tp450
a((F-0.009849447894871724
F-0.04209762651388195
tp451
F898.3836855804975
F1470682712.329
tp452
a((F-0.009450494780679504
F-0.04271503683605921
tp453
F895.4496674131286
F1470682712.345
tp454
a((F-0.009725951636659196
F-0.042959594993728076
tp455
F891.8916374957003
F1470682712.36
tp456
a((F-0.009643153712330096
F-0.043427581779489036
tp457
F893.2946256061939
F1470682712.376
tp458
a((F-0.008799958279239252
F-0.043812630119419396
tp459
F890.7275426069053
F1470682712.392
tp460
a((F-0.008130127309557103
F-0.044062610822601746
tp461
F894.7266930618035
F1470682712.409
tp462
a((F-0.008553277306701718
F-0.045247996704213984
tp463
F887.564094643116
F1470682712.424
tp464
a((F-0.008439196143619912
F-0.04589659204398082
tp465
F881.3720699767458
F1470682712.44
tp466
a((F-0.007964010946939182
F-0.047074333176655506
tp467
F865.0296082267722
F1470682712.456
tp468
a((F-0.0076164916347769875
F-0.04775826786195272
tp469
F852.4944466070206
F1470682712.472
tp470
a((F-0.006698280721431867
F-0.04798381468801363
tp471
F850.7768936013939
F1470682712.488
tp472
a((F-0.006224526890075001
F-0.04864111565393405
tp473
F858.5592250323106
F1470682712.505
tp474
a((F-0.004873141803405276
F-0.048793891890939904
tp475
F867.013589317387
F1470682712.52
tp476
a((F-0.004133109190037553
F-0.04878272216849944
tp477
F873.6075575263595
F1470682712.536
tp478
a((F-0.004842223410337119
F-0.048702132325106944
tp479
F881.0653788997998
F1470682712.552
tp480
a((F-0.004086316392061098
F-0.04879261733633132
tp481
F876.5985435081905
F1470682712.568
tp482
a((F-0.004724013264754128
F-0.04877810646360106
tp483
F878.0433055928853
F1470682712.584
tp484
a((F-0.005195797713536298
F-0.0489371361847128
tp485
F860.8589579869724
F1470682712.6
tp486
a((F-0.005475429374320566
F-0.048758800951240064
tp487
F844.0154018040766
F1470682712.616
tp488
a((F-0.005582368130121147
F-0.047852071464084454
tp489
F847.7089280615248
F1470682712.632
tp490
a((F-0.005610885836478804
F-0.047777203478202995
tp491
F856.726372789678
F1470682712.648
tp492
a((F-0.0047951551231728996
F-0.04725696575180125
tp493
F861.78333428288
F1470682712.664
tp494
a((F-0.005652996485044658
F-0.04657326315194876
tp495
F878.4182670665609
F1470682712.68
tp496
a((F-0.0056362619315183425
F-0.04651709017711078
tp497
F889.0524725387057
F1470682712.697
tp498
a((F-0.005724417100083382
F-0.0467380792208331
tp499
F906.1528198996377
F1470682712.713
tp500
a((F-0.005943209306863552
F-0.046828649684215545
tp501
F908.7629025512703
F1470682712.728
tp502
a((F-0.0056080387071803395
F-0.0470447593424498
tp503
F914.3036932929778
F1470682712.744
tp504
a((F-0.004990433881022757
F-0.04691686276677337
tp505
F920.8649831172228
F1470682712.761
tp506
a((F-0.004509139490456475
F-0.04687837898525146
tp507
F930.6435942686212
F1470682712.777
tp508
a((F-0.004697412736741758
F-0.04730975963151657
tp509
F929.3513220102075
F1470682712.793
tp510
a((F-0.003402887034826383
F-0.04841000967678224
tp511
F917.5034264972958
F1470682712.808
tp512
a((F-0.0037636765873390204
F-0.04864830555813768
tp513
F915.6476900498221
F1470682712.824
tp514
a((F-0.003237887017140236
F-0.04932165013444814
tp515
F905.4547648423852
F1470682712.841
tp516
a((F-0.002906163823102745
F-0.0494198588278932
tp517
F900.7225461701859
F1470682712.857
tp518
a((F-0.002568136962960887
F-0.04930708898469028
tp519
F896.6763011795999
F1470682712.872
tp520
a((F-0.002424160339590762
F-0.049380068335547735
tp521
F893.1395745547815
F1470682712.888
tp522
a((F-0.0016587182815625576
F-0.04905290608942423
tp523
F902.0665998776603
F1470682712.904
tp524
a((F-0.0018757644242618735
F-0.04932751286194042
tp525
F892.8462357068031
F1470682712.921
tp526
a((F-0.0018840182474849218
F-0.0495199930401142
tp527
F890.7769811866561
F1470682712.936
tp528
a((F-0.002453867692444279
F-0.0493157651414494
tp529
F890.8295981543179
F1470682712.952
tp530
a((F-0.0022001528552323844
F-0.04943711988430698
tp531
F885.0240659972037
F1470682712.968
tp532
a((F-0.0016295312755352166
F-0.04931182384543557
tp533
F876.7947162434091
F1470682712.985
tp534
a((F-0.0025642422464074287
F-0.049682438076601644
tp535
F874.7611658330131
F1470682713.001
tp536
a((F-0.0023327094387789573
F-0.04966594130773021
tp537
F869.6848342360173
F1470682713.016
tp538
a((F-0.0027899962990449462
F-0.04974414284007402
tp539
F873.6569251012118
F1470682713.032
tp540
a((F-0.003253831592038337
F-0.04964378364916955
tp541
F876.4361791260621
F1470682713.048
tp542
a((F-0.0035182145458852562
F-0.04955132152150034
tp543
F888.840147798584
F1470682713.064
tp544
a((F-0.0037611512085650805
F-0.04955339958886273
tp545
F882.128004332966
F1470682713.08
tp546
a((F-0.004688597889368545
F-0.049045486525619485
tp547
F887.3074376611653
F1470682713.096
tp548
a((F-0.005102784526210086
F-0.048709545547325844
tp549
F887.2743666101936
F1470682713.112
tp550
a((F-0.0052857959085922885
F-0.0482683374613562
tp551
F895.7268389223848
F1470682713.128
tp552
a((F-0.004973772583774745
F-0.04798881711500308
tp553
F896.8225303955955
F1470682713.144
tp554
a((F-0.005030358533049217
F-0.04780886322312292
tp555
F891.7063915884352
F1470682713.161
tp556
a((F-0.00521959203424758
F-0.04771817295152921
tp557
F879.1637861233377
F1470682713.177
tp558
a((F-0.005494406343425621
F-0.04722023133683491
tp559
F878.0574481652682
F1470682713.193
tp560
a((F-0.00497731381144484
F-0.04710895667456804
tp561
F879.718287867337
F1470682713.208
tp562
a((F-0.004894298907841642
F-0.04723127125974907
tp563
F874.4205177517428
F1470682713.224
tp564
a((F-0.004746606725611041
F-0.046600768481371034
tp565
F874.5695377734918
F1470682713.24
tp566
a((F-0.004177617659926076
F-0.046670561365996205
tp567
F867.0449904352276
F1470682713.256
tp568
a((F-0.0036027641880374143
F-0.046016909253852996
tp569
F868.7054894107554
F1470682713.272
tp570
a((F-0.0030492319000258576
F-0.0453951285933271
tp571
F875.8425070261544
F1470682713.288
tp572
a((F-0.003281431906552497
F-0.045485047762071996
tp573
F870.859859736541
F1470682713.304
tp574
a((F-0.003922790961757075
F-0.045389700573432286
tp575
F860.5118849826428
F1470682713.32
tp576
a((F-0.004086409937121412
F-0.044839064877071316
tp577
F852.0567473160022
F1470682713.336
tp578
a((F-0.0026115547669006097
F-0.04443063634132906
tp579
F845.7168920511004
F1470682713.352
tp580
a((F-0.0027409601868662965
F-0.04348055179288215
tp581
F863.5511049626667
F1470682713.368
tp582
a((F-0.0027186902352219805
F-0.04348227377734483
tp583
F870.8294142267193
F1470682713.384
tp584
a((F-0.003596877688149019
F-0.04333569008080409
tp585
F862.9298254896203
F1470682713.4
tp586
a((F-0.003647346051357005
F-0.04302153612936164
tp587
F852.1802497231718
F1470682713.416
tp588
a((F-0.0034795024821331075
F-0.04291798984765281
tp589
F846.0480285012437
F1470682713.432
tp590
a((F-0.004569146976386085
F-0.04208407820516744
tp591
F870.3209946352381
F1470682713.448
tp592
a((F-0.0036413455585744825
F-0.04156959988161141
tp593
F876.492833147767
F1470682713.464
tp594
a((F-0.0043940838043483015
F-0.04143496385923043
tp595
F853.6187161698078
F1470682713.48
tp596
a((F-0.003575805021874103
F-0.04076474360693781
tp597
F821.9415480412714
F1470682713.496
tp598
a((F-0.004311499002485316
F-0.040363883774226235
tp599
F809.7033205752555
F1470682713.512
tp600
a((F-0.005712747187758916
F-0.03932650914088323
tp601
F824.9155942314073
F1470682713.528
tp602
a((F-0.007839016450273701
F-0.03903903690312282
tp603
F842.4150011735542
F1470682713.545
tp604
a((F-0.007916734698124261
F-0.03876971724809875
tp605
F851.0540376504277
F1470682713.56
tp606
a((F-0.005224983709415151
F-0.03736660211760955
tp607
F861.7707570635085
F1470682713.576
tp608
a((F9.994568374980266e-05
F-0.03646036794633866
tp609
F855.698523040667
F1470682713.593
tp610
a((F0.003101576827604523
F-0.03562729882825165
tp611
F870.339814472133
F1470682713.608
tp612
a((F0.005262263118469494
F-0.0337199764270854
tp613
F907.7649364951383
F1470682713.624
tp614
a((F0.005393196156006935
F-0.03253144304100528
tp615
F942.2266547305311
F1470682713.64
tp616
a((F0.006709481823600524
F-0.030886635589345596
tp617
F965.8490440889439
F1470682713.656
tp618
a((F0.009642854755218377
F-0.02913941406641363
tp619
F993.4703682760589
F1470682713.672
tp620
a((F0.014304607074787869
F-0.02603101839001437
tp621
F1027.0674744716937
F1470682713.688
tp622
a((F0.017650241899254234
F-0.02163552466121893
tp623
F1063.886529504125
F1470682713.705
tp624
a((F0.019271074395395972
F-0.017114761664477156
tp625
F1101.8646317916496
F1470682713.721
tp626
a((F0.017571796313778604
F-0.012975113733404547
tp627
F1108.0322103865178
F1470682713.737
tp628
a((F0.014442344326878232
F-0.009239920809588622
tp629
F1090.0245039214778
F1470682713.752
tp630
a((F0.01252929569422858
F-0.006329753080446411
tp631
F1033.359553456045
F1470682713.769
tp632
a((F0.010598451605269997
F-0.003949204836078928
tp633
F962.1319369205894
F1470682713.785
tp634
a((F0.009635160204478297
F-0.0011829185182223691
tp635
F898.1256131510852
F1470682713.8
tp636
a((F0.008085595138007875
F0.0026219985914357887
tp637
F873.1457092154332
F1470682713.816
tp638
a((F0.0073435431931936
F0.006773611697750302
tp639
F866.179727861009
F1470682713.833
tp640
a((F0.006770930205789614
F0.010091893456315948
tp641
F873.436277600754
F1470682713.848
tp642
a((F0.006449285836862475
F0.012983458399628972
tp643
F882.0021655451028
F1470682713.865
tp644
a((F0.0056910070432518705
F0.014973889108418618
tp645
F896.7758889833827
F1470682713.88
tp646
a((F0.00406173728339814
F0.01618261655967639
tp647
F908.8114139610888
F1470682713.896
tp648
a((F0.003085177247503508
F0.017665873534640615
tp649
F914.1136261512515
F1470682713.912
tp650
a((F0.0021911812401991778
F0.01885549856503491
tp651
F920.3119268627734
F1470682713.929
tp652
a((F0.0003126877538229838
F0.01938374466862645
tp653
F921.0583372871878
F1470682713.945
tp654
a((F-0.0005999723005121936
F0.019994464010688745
tp655
F918.4434547482406
F1470682713.961
tp656
a((F-0.0012379997943899686
F0.02044034992048718
tp657
F908.6192456880915
F1470682713.977
tp658
a((F-0.0026477637095723787
F0.02077171633363389
tp659
F901.5727963071578
F1470682713.992
tp660
a((F-0.004167745184494746
F0.02105653626632762
tp661
F898.6108031063247
F1470682714.008
tp662
a((F-0.004986760091431441
F0.021592062777842612
tp663
F885.622571315246
F1470682714.025
tp664
a((F-0.006286836203768268
F0.0219698206114327
tp665
F879.9548518590695
F1470682714.04
tp666
a((F-0.007184168071903263
F0.02176393055858627
tp667
F882.547394019834
F1470682714.056
tp668
a((F-0.007794975029309374
F0.022106397333642395
tp669
F884.3141173410768
F1470682714.072
tp670
a((F-0.007938115642982468
F0.0225052541576139
tp671
F893.3151589375227
F1470682714.089
tp672
a((F-0.008121565215710705
F0.02258505494584551
tp673
F901.8702242102261
F1470682714.105
tp674
a((F-0.008560329385250753
F0.021999029187578754
tp675
F907.4671778679896
F1470682714.12
tp676
a((F-0.009178337113028859
F0.021173873103705013
tp677
F917.9189421223678
F1470682714.137
tp678
a((F-0.009720235979809951
F0.02051922088105068
tp679
F920.4952944451937
F1470682714.152
tp680
a((F-0.011464439567672166
F0.019367210980576834
tp681
F925.2970792248802
F1470682714.168
tp682
a((F-0.013277934045705044
F0.018615739583959144
tp683
F917.3358737954512
F1470682714.184
tp684
a((F-0.016264240915199207
F0.017448698229698894
tp685
F910.9680576307428
F1470682714.201
tp686
a((F-0.019795685260390914
F0.016740297507205563
tp687
F900.7504482509726
F1470682714.216
tp688
a((F-0.02363768676843356
F0.015874299733193518
tp689
F898.7858635242123
F1470682714.233
tp690
a((F-0.02699301140412096
F0.015302305403928122
tp691
F901.0373995144347
F1470682714.248
tp692
a((F-0.031020783789307428
F0.015200054616040194
tp693
F893.5051999494145
F1470682714.265
tp694
a((F-0.03433135802457741
F0.015047079950229391
tp695
F900.3047357707673
F1470682714.28
tp696
a((F-0.038225457753764895
F0.014748916123968754
tp697
F897.906130116888
F1470682714.296
tp698
a((F-0.04054258751722653
F0.014476206558416447
tp699
F911.2165292266471
F1470682714.312
tp700
a((F-0.04267228490099247
F0.014489447965739788
tp701
F902.9750200524759
F1470682714.329
tp702
a((F-0.0439533328083398
F0.013960399385212329
tp703
F923.4403413230093
F1470682714.345
tp704
a((F-0.04572638311237769
F0.0137959943694248
tp705
F923.4219330677912
F1470682714.361
tp706
a((F-0.047416212572460356
F0.01408239850300704
tp707
F926.3202962099285
F1470682714.377
tp708
a((F-0.049521349834829975
F0.014062747646527207
tp709
F919.7525840192477
F1470682714.392
tp710
a((F-0.05130344466366267
F0.013858149480841386
tp711
F910.4976195238529
F1470682714.409
tp712
a((F-0.05272982936249528
F0.013462955550181899
tp713
F908.9994008705596
F1470682714.425
tp714
a((F-0.05418064392066509
F0.01386500925809238
tp715
F898.0874000874198
F1470682714.441
tp716
a((F-0.055823118600987716
F0.013768441701642474
tp717
F892.3986172663527
F1470682714.456
tp718
a((F-0.057659592799597384
F0.013800376779246514
tp719
F882.6730736256043
F1470682714.472
tp720
a((F-0.0594564865347502
F0.013611148164911213
tp721
F879.7510591875392
F1470682714.488
tp722
a((F-0.06133548451695991
F0.013335525325163189
tp723
F872.490354256334
F1470682714.504
tp724
a((F-0.06206891257483389
F0.012448952801913613
tp725
F881.5429260957166
F1470682714.52
tp726
a((F-0.06374192781462258
F0.01202465661023408
tp727
F878.3394125015253
F1470682714.536
tp728
a((F-0.06436421695965103
F0.011623705610263355
tp729
F886.448081772343
F1470682714.552
tp730
a((F-0.06487449591922437
F0.011226456102604145
tp731
F901.4983127052345
F1470682714.568
tp732
a((F-0.06578634408117036
F0.011081160509477595
tp733
F904.4008869108
F1470682714.584
tp734
a((F-0.06672737035443868
F0.010604140835944584
tp735
F903.0103789047891
F1470682714.6
tp736
a((F-0.06723306732292841
F0.010262098021394156
tp737
F904.9336198850575
F1470682714.616
tp738
a((F-0.06792198025948896
F0.009994118290128069
tp739
F902.6229509567809
F1470682714.632
tp740
a((F-0.06639388035408111
F0.009646858816602509
tp741
F915.9885926727159
F1470682714.648
tp742
a((F-0.06461716632747624
F0.008568310887229343
tp743
F922.9369597452906
F1470682714.664
tp744
a((F-0.06402317749535028
F0.007382469314833931
tp745
F920.2153496260981
F1470682714.68
tp746
a((F-0.06300617815616873
F0.007010916127465213
tp747
F917.598976347334
F1470682714.696
tp748
a((F-0.06230722515351674
F0.006414944112673164
tp749
F917.5628947296785
F1470682714.712
tp750
a((F-0.06174117451137404
F0.005327546507120529
tp751
F914.9328267418153
F1470682714.729
tp752
a((F-0.06087982742203102
F0.004538207904343571
tp753
F911.2942651543086
F1470682714.745
tp754
a((F-0.0608513701100165
F0.003848945114751947
tp755
F910.7684484611495
F1470682714.76
tp756
a((F-0.06084284047588433
F0.0035642547155159657
tp757
F909.9199207032448
F1470682714.776
tp758
a((F-0.06106107671611222
F0.0030652836085071212
tp759
F910.0685942856078
F1470682714.792
tp760
a((F-0.06152964981582282
F0.002914838046795346
tp761
F907.7608957597562
F1470682714.808
tp762
a((F-0.061992082109478694
F0.002201239461088401
tp763
F906.9337021875002
F1470682714.824
tp764
a((F-0.06229344692897971
F0.002042967119113967
tp765
F899.0909945227874
F1470682714.84
tp766
a((F-0.06110986575033337
F0.0018902141761511066
tp767
F909.7896686053699
F1470682714.857
tp768
a((F-0.0606478725646474
F0.0013869224956138864
tp769
F910.9383602657872
F1470682714.872
tp770
a((F-0.06090144555862018
F0.0014079979770674803
tp771
F904.2058274987673
F1470682714.888
tp772
a((F-0.06058179976014779
F0.001302739501539042
tp773
F903.4267892266969
F1470682714.903
tp774
a((F-0.06004997952667612
F0.0010684459797256553
tp775
F906.105658639017
F1470682714.92
tp776
a((F-0.05990096196161509
F0.000859552439168618
tp777
F902.456010220997
F1470682714.936
tp778
a((F-0.05921406822130622
F0.0009497314910566652
tp779
F907.0820900124838
F1470682714.952
tp780
a((F-0.059650656277607905
F0.0007669744239315285
tp781
F903.5261312637322
F1470682714.968
tp782
a((F-0.05969924884762816
F0.001006468393418189
tp783
F902.638333706285
F1470682714.984
tp784
a((F-0.06023864959649187
F0.0009152833863477897
tp785
F902.7602024352487
F1470682715.0
tp786
a((F-0.05929786556621994
F0.0006554169675530276
tp787
F909.0049074334694
F1470682715.016
tp788
a((F-0.05881369307563517
F0.0006831867270128565
tp789
F905.3952161563982
F1470682715.032
tp790
a((F-0.059054927417608705
F0.00014986244249311548
tp791
F908.7166669317436
F1470682715.048
tp792
a((F-0.05848319389497268
F-0.0001270922986148335
tp793
F908.427207340913
F1470682715.065
tp794
a((F-0.05841119139669651
F0.00028441757695205354
tp795
F904.5842070102738
F1470682715.081
tp796
a((F-0.05929390957673995
F0.00011736940260946488
tp797
F900.6272708752315
F1470682715.096
tp798
a((F-0.05971355978141884
F0.00013685893390639564
tp799
F890.2998931803426
F1470682715.113
tp800
a((F-0.06046417450272882
F5.7867877460156265e-05
tp801
F882.0207815574199
F1470682715.129
tp802
a((F-0.06055239909982093
F4.862322469747837e-05
tp803
F880.6673586319732
F1470682715.145
tp804
a((F-0.061799460913438825
F-0.0002401402103671389
tp805
F877.9610382407783
F1470682715.161
tp806
a((F-0.06160094473358004
F-0.00048161400784342963
tp807
F877.5023142965753
F1470682715.176
tp808
a((F-0.06252121888943883
F-0.0008255459993180147
tp809
F880.5637129011099
F1470682715.192
tp810
a((F-0.0626004034207674
F-0.0011010012316643842
tp811
F893.2205470921826
F1470682715.208
tp812
a((F-0.06340780074744362
F-0.0016158929225662472
tp813
F899.1042250805441
F1470682715.224
tp814
a((F-0.06309100788835403
F-0.0017346227784552403
tp815
F906.6822170364826
F1470682715.241
tp816
a((F-0.0639087552734069
F-0.0018936850539369437
tp817
F906.0539122664459
F1470682715.256
tp818
a((F-0.06381296494443978
F-0.001982840669811237
tp819
F912.076130333374
F1470682715.272
tp820
a((F-0.06399236723053676
F-0.0022320805490777624
tp821
F916.0272857916843
F1470682715.288
tp822
a((F-0.06490470161200408
F-0.003107376194539094
tp823
F911.6566810241611
F1470682715.305
tp824
a((F-0.06550813052910373
F-0.003696967123286463
tp825
F903.6797841276816
F1470682715.321
tp826
a((F-0.06579452718709493
F-0.004324645208685497
tp827
F899.2305996467362
F1470682715.336
tp828
a((F-0.06517987695544043
F-0.004472587321909114
tp829
F905.883085338404
F1470682715.352
tp830
a((F-0.06550562984873202
F-0.0052455340227879795
tp831
F898.2218690232736
F1470682715.368
tp832
a((F-0.06471443828629476
F-0.005456622444457464
tp833
F893.1823185604596
F1470682715.384
tp834
a((F-0.06492631475393895
F-0.006020762729614835
tp835
F894.9459342500512
F1470682715.4
tp836
a((F-0.06496874527310434
F-0.006416928229271946
tp837
F892.0583197185887
F1470682715.416
tp838
a((F-0.06413244275349245
F-0.006523129906243357
tp839
F897.7556000340231
F1470682715.433
tp840
a((F-0.06469053575872886
F-0.007052724380554963
tp841
F892.0893757996745
F1470682715.448
tp842
a((F-0.06389017573807539
F-0.0067682450452031945
tp843
F904.5897052087594
F1470682715.464
tp844
a((F-0.06379778869034439
F-0.006782728063586713
tp845
F912.1007027577822
F1470682715.48
tp846
a((F-0.06366290436152246
F-0.007023476457937445
tp847
F911.4574806311671
F1470682715.496
tp848
a((F-0.06381505058290972
F-0.007184102979993901
tp849
F919.8934226042791
F1470682715.513
tp850
a((F-0.06362427464645277
F-0.007552425826463935
tp851
F915.2913027649912
F1470682715.529
tp852
a((F-0.0637991459315825
F-0.007527262206113248
tp853
F914.9240163220771
F1470682715.545
tp854
a((F-0.06398855624914576
F-0.007427956436901805
tp855
F911.2274063373029
F1470682715.561
tp856
a((F-0.06428891260386575
F-0.007483618264030778
tp857
F908.772196367563
F1470682715.576
tp858
a((F-0.0644259325812013
F-0.007574905709442186
tp859
F905.2879587524
F1470682715.592
tp860
a((F-0.0651223481096573
F-0.007679798287827389
tp861
F903.9902675904592
F1470682715.608
tp862
a((F-0.06576486260937141
F-0.0075133458011769705
tp863
F911.767081075095
F1470682715.624
tp864
a((F-0.06542523039321539
F-0.0070422119509348366
tp865
F909.0035053097519
F1470682715.64
tp866
a((F-0.06587487504206439
F-0.0068790246231599265
tp867
F911.6860515834983
F1470682715.657
tp868
a((F-0.06689217843155873
F-0.006695631250405901
tp869
F901.5697639804065
F1470682715.672
tp870
a((F-0.06692854022719165
F-0.0065791350154306
tp871
F900.4885986001616
F1470682715.688
tp872
a((F-0.06681858195409786
F-0.006509530741311098
tp873
F912.9329106663182
F1470682715.704
tp874
a((F-0.0670164132350342
F-0.006118625447603046
tp875
F900.1062181115797
F1470682715.72
tp876
a((F-0.06650104563451717
F-0.005991741443280238
tp877
F905.6048514840616
F1470682715.736
tp878
a((F-0.06647019745255076
F-0.005844005825707293
tp879
F902.0966243007332
F1470682715.752
tp880
a((F-0.06653069123317515
F-0.005451423493548258
tp881
F899.8854464141623
F1470682715.768
tp882
a((F-0.06732308246049422
F-0.005447987464593166
tp883
F892.0363784701292
F1470682715.784
tp884
a((F-0.06624376690900369
F-0.00502311720259746
tp885
F893.8989288986104
F1470682715.8
tp886
a((F-0.06638096509430635
F-0.004339030798123403
tp887
F892.3256008129446
F1470682715.816
tp888
a((F-0.06609106501592642
F-0.004270726571984052
tp889
F896.8317475709863
F1470682715.832
tp890
a((F-0.06456726239370361
F-0.0035293135649367754
tp891
F908.7087433001985
F1470682715.849
tp892
a((F-0.06452322576590405
F-0.0026103858385095086
tp893
F904.9144392387418
F1470682715.865
tp894
a((F-0.06443234065013691
F-0.0021652710836777968
tp895
F906.9261372960198
F1470682715.88
tp896
a((F-0.0644958000765158
F-0.0015454826148243099
tp897
F903.5297472382741
F1470682715.897
tp898
a((F-0.06347811566836883
F-0.0009752786671236145
tp899
F907.2969886780907
F1470682715.914
tp900
a((F-0.06357129012930601
F-0.0007592624510373701
tp901
F899.3572996337753
F1470682715.93
tp902
a((F-0.06299696167957976
F-0.0003148583290722552
tp903
F900.4561889110514
F1470682715.946
tp904
a((F-0.06315114943141939
F6.750529249943694e-05
tp905
F905.3175345482101
F1470682715.962
tp906
a((F-0.06193131092412092
F0.0004997076406380528
tp907
F904.7636128833162
F1470682715.977
tp908
a((F-0.062172531132785196
F0.0006028420375166307
tp909
F908.577313457117
F1470682715.994
tp910
a((F-0.0617167417886934
F0.00036883449975273985
tp911
F905.9036780396873
F1470682716.009
tp912
a((F-0.06126270258702455
F0.0005949006323247057
tp913
F904.939645916952
F1470682716.025
tp914
a((F-0.06066531221008465
F0.0005932130138881171
tp915
F904.2313163953004
F1470682716.042
tp916
a((F-0.059525571615879916
F0.0004502817725102841
tp917
F906.8954287546396
F1470682716.057
tp918
a((F-0.05820523633202818
F0.0009829603765078082
tp919
F915.5158396451565
F1470682716.074
tp920
a((F-0.05745108036466955
F0.0011977521063453152
tp921
F908.1749293139919
F1470682716.089
tp922
a((F-0.05630152246402312
F0.0017736663995004008
tp923
F913.8171859529533
F1470682716.105
tp924
a((F-0.054445406320209916
F0.0018950279625736285
tp925
F915.3858253204615
F1470682716.121
tp926
a((F-0.05352556329209452
F0.0023479242397070063
tp927
F910.6324854066274
F1470682716.137
tp928
a((F-0.05142639634222857
F0.0026645949013887624
tp929
F914.1863858637399
F1470682716.154
tp930
a((F-0.050311182068116245
F0.003031310140834713
tp931
F911.9496868541358
F1470682716.17
tp932
a((F-0.049139055055315184
F0.0030141074562037534
tp933
F906.761266475837
F1470682716.186
tp934
a((F-0.04783460684965023
F0.0034441340858665905
tp935
F906.8030795601467
F1470682716.201
tp936
a((F-0.046517026330304204
F0.003690283744295841
tp937
F911.4715250548261
F1470682716.217
tp938
a((F-0.0446214298680911
F0.003701369055013979
tp939
F914.9947460114386
F1470682716.233
tp940
a((F-0.043570843573881156
F0.0044275017087714525
tp941
F908.4946718464465
F1470682716.249
tp942
a((F-0.04286949876311829
F0.0045414441024727295
tp943
F910.9734855325459
F1470682716.266
tp944
a((F-0.04096132428878827
F0.004984025072743665
tp945
F904.4662218576326
F1470682716.282
tp946
a((F-0.0402386879630222
F0.005156593433259132
tp947
F903.2531779922624
F1470682716.299
tp948
a((F-0.039128118366894254
F0.0054802418266089795
tp949
F902.3779242544454
F1470682716.314
tp950
a((F-0.038445877083933544
F0.0058902362089928014
tp951
F902.1440845547726
F1470682716.33
tp952
a((F-0.03789316646172253
F0.005943569104739439
tp953
F902.6440272220331
F1470682716.347
tp954
a((F-0.03701984898423799
F0.006107596565151268
tp955
F899.9573897987971
F1470682716.363
tp956
a((F-0.03517589305436148
F0.006701153705689962
tp957
F905.0313948375415
F1470682716.379
tp958
a((F-0.03403951422094522
F0.007081162513958979
tp959
F901.4719817935563
F1470682716.394
tp960
a((F-0.032009975691040526
F0.007932571410545097
tp961
F901.6753483963533
F1470682716.41
tp962
a((F-0.030595473722603826
F0.008202883675656575
tp963
F902.4660227349243
F1470682716.427
tp964
a((F-0.028716295398698365
F0.00857287871816689
tp965
F896.2659111283958
F1470682716.443
tp966
a((F-0.027563074784701238
F0.008592557857574052
tp967
F906.3200874455083
F1470682716.458
tp968
a((F-0.025821080850357128
F0.009423313473572748
tp969
F896.0289955675074
F1470682716.474
tp970
a((F-0.024573257855547953
F0.009903672794257619
tp971
F905.0532146887687
F1470682716.491
tp972
a((F-0.022407500732127578
F0.010047789812064585
tp973
F908.0497256067981
F1470682716.507
tp974
a((F-0.02166966900674433
F0.01052593671577757
tp975
F906.2765804455578
F1470682716.522
tp976
a((F-0.01954835947980726
F0.010735559361239579
tp977
F901.7183967989597
F1470682716.538
tp978
a((F-0.01834413105643792
F0.011076833529637245
tp979
F901.5654370110578
F1470682716.555
tp980
a((F-0.017542693013641825
F0.011161031736831542
tp981
F899.9861397816485
F1470682716.571
tp982
a((F-0.01645666986758173
F0.01136176322516419
tp983
F902.9142409204565
F1470682716.587
tp984
a((F-0.014701362472001026
F0.011456675724985401
tp985
F900.4534960401068
F1470682716.602
tp986
a((F-0.013565711980548597
F0.011554520990269272
tp987
F899.6896103923659
F1470682716.618
tp988
a((F-0.012126393738045887
F0.011213426798975818
tp989
F902.1586309502511
F1470682716.634
tp990
a((F-0.010576554012983422
F0.01114414485710777
tp991
F907.1202564418636
F1470682716.65
tp992
a((F-0.008211049924712947
F0.01134912970200225
tp993
F902.8113596189511
F1470682716.667
tp994
a((F-0.005744595693080331
F0.011725971877481062
tp995
F904.9278022787428
F1470682716.683
tp996
a((F-0.003995505399252965
F0.01164685635541837
tp997
F899.1296854526017
F1470682716.699
tp998
a((F-0.002078771654465273
F0.011357172322076675
tp999
F901.8378370066391
F1470682716.714
tp1000
a((F-0.00039018240835707926
F0.011352295326990443
tp1001
F905.6411274649254
F1470682716.731
tp1002
a((F0.001728190292047831
F0.01076141478798423
tp1003
F910.2329776727838
F1470682716.747
tp1004
a((F0.004634868161591111
F0.010453597270958754
tp1005
F910.0813581649983
F1470682716.763
tp1006
a((F0.006141010212325014
F0.010275059829601639
tp1007
F907.5832286934744
F1470682716.779
tp1008
a((F0.006981592334558633
F0.010245308209960988
tp1009
F907.6521565146068
F1470682716.795
tp1010
a((F0.008071813701321767
F0.01030652369207155
tp1011
F905.5826915546704
F1470682716.811
tp1012
a((F0.008823511490142013
F0.009996426137094208
tp1013
F908.2586901836786
F1470682716.827
tp1014
a((F0.008529675059823393
F0.010246513922938308
tp1015
F901.8835773952371
F1470682716.843
tp1016
a((F0.007475971661836179
F0.009934825232891117
tp1017
F912.0588770476834
F1470682716.859
tp1018
a((F0.007528410760220555
F0.01027443124917303
tp1019
F900.6258483851725
F1470682716.875
tp1020
a((F0.006611178844942779
F0.010288284808735186
tp1021
F896.0609244471252
F1470682716.891
tp1022
a((F0.005644936447912373
F0.009990265127667776
tp1023
F898.0582149227448
F1470682716.907
tp1024
a((F0.004940453738069286
F0.010343291662798093
tp1025
F889.4451656211913
F1470682716.922
tp1026
a((F0.004974196944051662
F0.010130742790469117
tp1027
F904.2474814299906
F1470682716.938
tp1028
a((F0.004708078984073857
F0.009911678194711997
tp1029
F903.9620976548304
F1470682716.955
tp1030
a((F0.004413126582760983
F0.009850498430969086
tp1031
F896.4369975721249
F1470682716.97
tp1032
a((F0.0032605565244374956
F0.009667587995116543
tp1033
F892.7830550824553
F1470682716.987
tp1034
a((F0.0034005743024648734
F0.009571405762261141
tp1035
F894.7590434926167
F1470682717.003
tp1036
a((F0.003190551144745227
F0.009474862094082303
tp1037
F899.9278523087352
F1470682717.019
tp1038
a((F0.003085424174438725
F0.009409582091348631
tp1039
F902.1209812565116
F1470682717.034
tp1040
a((F0.002998968127469408
F0.009346602779082062
tp1041
F907.1471344150144
F1470682717.051
tp1042
a((F0.003887071494076307
F0.009010866020045409
tp1043
F911.2830218709354
F1470682717.067
tp1044
a((F0.005718488465338138
F0.009095500949934955
tp1045
F918.5625946960871
F1470682717.083
tp1046
a((F0.007811218965176487
F0.008773950870911594
tp1047
F920.0845627362316
F1470682717.099
tp1048
a((F0.010836224062018207
F0.009343301459310779
tp1049
F913.3499886394236
F1470682717.115
tp1050
a((F0.012880590681207721
F0.009411587992020666
tp1051
F906.4605557919108
F1470682717.131
tp1052
a((F0.015091082446225408
F0.00991741369474116
tp1053
F905.600671531771
F1470682717.147
tp1054
a((F0.017879883933620184
F0.010208692834006525
tp1055
F904.9011420457599
F1470682717.163
tp1056
a((F0.02013013607726524
F0.010392326000249521
tp1057
F909.9415864278794
F1470682717.179
tp1058
a((F0.02324913890429304
F0.01066441665478953
tp1059
F898.591672004598
F1470682717.195
tp1060
a((F0.024579472550441038
F0.009911114007776153
tp1061
F900.591434181249
F1470682717.211
tp1062
a((F0.025450278055598578
F0.009601597618537233
tp1063
F904.3578294286137
F1470682717.227
tp1064
a((F0.027977684666178976
F0.009219309535726751
tp1065
F900.3956591207237
F1470682717.242
tp1066
a((F0.02886802307747798
F0.009018180227935319
tp1067
F904.1500440497466
F1470682717.258
tp1068
a((F0.029935355552223163
F0.008037098614937373
tp1069
F907.7650014418989
F1470682717.274
tp1070
a((F0.03093796203969471
F0.007486623447899996
tp1071
F910.4533925072003
F1470682717.291
tp1072
a((F0.032649021473159415
F0.007395207558060182
tp1073
F902.6875871051492
F1470682717.307
tp1074
a((F0.03399076128698166
F0.006953337112687774
tp1075
F899.3126097555806
F1470682717.322
tp1076
a((F0.03543820322770592
F0.006283624376000691
tp1077
F896.3327207516759
F1470682717.338
tp1078
a((F0.036502806249453776
F0.005726565925123209
tp1079
F896.3917131070766
F1470682717.355
tp1080
a((F0.038233924614508676
F0.00523413881629397
tp1081
F894.6125337100307
F1470682717.371
tp1082
a((F0.03970414035250283
F0.00492290279599498
tp1083
F897.4864355163933
F1470682717.387
tp1084
a((F0.040380367340044465
F0.004302178887729793
tp1085
F908.9083227265057
F1470682717.403
tp1086
a((F0.04172508824258543
F0.003441787858866257
tp1087
F903.2988127974663
F1470682717.418
tp1088
a((F0.041713491115439094
F0.002656804765656852
tp1089
F910.4172540353823
F1470682717.434
tp1090
a((F0.04211425529593658
F0.0026455561051527262
tp1091
F912.9263580641912
F1470682717.45
tp1092
a((F0.042845725266841855
F0.0021184923215962375
tp1093
F913.5518780411526
F1470682717.466
tp1094
a((F0.04203355379092746
F0.0015202333768660568
tp1095
F913.3725749190019
F1470682717.482
tp1096
a((F0.04146294530509215
F0.0008019056252020443
tp1097
F912.5699120593874
F1470682717.499
tp1098
a((F0.04112440932086473
F0.0006104980216879065
tp1099
F909.6802713090333
F1470682717.515
tp1100
a((F0.04257151171041976
F0.0006351895396378478
tp1101
F903.4159996484964
F1470682717.531
tp1102
a((F0.04331632022132899
F0.0003944459007698262
tp1103
F897.4730754446229
F1470682717.546
tp1104
a((F0.04288327225818552
F0.0007824034868204969
tp1105
F900.9531393029552
F1470682717.562
tp1106
a((F0.04307875949286003
F0.0005613189377683094
tp1107
F895.7854203408622
F1470682717.579
tp1108
a((F0.043356530437168354
F0.0009446592565938638
tp1109
F893.8556550937426
F1470682717.595
tp1110
a((F0.043110332545639625
F0.0007735278492498264
tp1111
F903.8064906780464
F1470682717.61
tp1112
a((F0.04450238923754075
F0.001336951622181016
tp1113
F902.9566679882128
F1470682717.626
tp1114
a((F0.04456602327570529
F0.001746673350409888
tp1115
F906.7357337860622
F1470682717.642
tp1116
a((F0.045057898776784115
F0.002087285568504763
tp1117
F906.2749386731823
F1470682717.658
tp1118
a((F0.04638807369342214
F0.0028466113404949835
tp1119
F904.1725063662008
F1470682717.674
tp1120
a((F0.04659633677596136
F0.0030682271741870343
tp1121
F909.8018691877712
F1470682717.691
tp1122
a((F0.04685747306780724
F0.003619515006448495
tp1123
F907.585165536252
F1470682717.707
tp1124
a((F0.047078492565735756
F0.00407107610163186
tp1125
F900.8470282563551
F1470682717.722
tp1126
a((F0.046883573728063205
F0.003737880384454563
tp1127
F900.6463095683662
F1470682717.738
tp1128
a((F0.04699503539208414
F0.004140298463410975
tp1129
F901.6280310111604
F1470682717.754
tp1130
a((F0.04783284513028477
F0.0045285193816716205
tp1131
F891.9747407282159
F1470682717.77
tp1132
a((F0.04752243385489885
F0.004477297129853481
tp1133
F902.0798394248995
F1470682717.786
tp1134
a((F0.047774030471235095
F0.0046604067346924585
tp1135
F901.0612931752108
F1470682717.802
tp1136
a((F0.0474548286285126
F0.004203911189539786
tp1137
F905.2526630202194
F1470682717.818
tp1138
a((F0.04643871896989782
F0.003567762483755735
tp1139
F904.3615162753698
F1470682717.835
tp1140
a((F0.04643426523274176
F0.0033622208637066288
tp1141
F911.3303026162714
F1470682717.851
tp1142
a((F0.046544903687337554
F0.003104704597073159
tp1143
F911.8824486638439
F1470682717.867
tp1144
a((F0.04683991845533936
F0.003481535616069468
tp1145
F908.5209168743561
F1470682717.883
tp1146
a((F0.046907268270870224
F0.003074929794264724
tp1147
F909.1857830201222
F1470682717.898
tp1148
a((F0.0488121657588833
F0.0029459333628522677
tp1149
F899.4016920553122
F1470682717.914
tp1150
a((F0.049424686199816686
F0.002760722938262912
tp1151
F904.0503356199243
F1470682717.93
tp1152
a((F0.05090050677669483
F0.002805690571924121
tp1153
F908.6234574918079
F1470682717.946
tp1154
a((F0.05272039981585143
F0.0028849201977803876
tp1155
F904.5779626803787
F1470682717.962
tp1156
a((F0.051306527472972284
F0.0020649514800626387
tp1157
F914.293095631731
F1470682717.978
tp1158
a((F0.0519204400490882
F0.00183800946908772
tp1159
F917.741318902761
F1470682717.994
tp1160
a((F0.05268089550310757
F0.0017580892124254418
tp1161
F917.8352165051165
F1470682718.01
tp1162
a((F0.052732481131937715
F0.0016382019722416385
tp1163
F917.4176621520085
F1470682718.026
tp1164
a((F0.054642700987421716
F0.0016430402715128468
tp1165
F911.4222141361072
F1470682718.042
tp1166
a((F0.05514910162507908
F0.001546457416836232
tp1167
F909.2582146696383
F1470682718.058
tp1168
a((F0.05602347418985687
F0.0016668432345275303
tp1169
F910.7641663559953
F1470682718.074
tp1170
a((F0.05698753797153286
F0.0018222136900009071
tp1171
F906.391748840033
F1470682718.09
tp1172
a((F0.05815243549577051
F0.0020429816164227264
tp1173
F906.3641600567767
F1470682718.106
tp1174
a((F0.05859959142690352
F0.001962560722997583
tp1175
F910.8436115524656
F1470682718.122
tp1176
a((F0.06005509296074609
F0.0019299362281569215
tp1177
F900.079922654121
F1470682718.138
tp1178
a((F0.060640696933747906
F0.002148341955445478
tp1179
F901.0118357755288
F1470682718.154
tp1180
a((F0.061728189596315555
F0.0025149419375381414
tp1181
F891.1145224552346
F1470682718.17
tp1182
a((F0.06193817384000226
F0.002322427868491821
tp1183
F893.2649770934681
F1470682718.186
tp1184
a((F0.0633346925255748
F0.002232077986066572
tp1185
F884.6908011414375
F1470682718.202
tp1186
a((F0.06363278001042413
F0.002554231067245945
tp1187
F890.6311386888691
F1470682718.218
tp1188
a((F0.06393489986069521
F0.0022572126877142924
tp1189
F898.0165235494592
F1470682718.234
tp1190
a((F0.06365815448835961
F0.0022685295127654204
tp1191
F907.9946394861481
F1470682718.25
tp1192
a((F0.06347194115115123
F0.0020841153089614347
tp1193
F913.6987334316314
F1470682718.267
tp1194
a((F0.06308048452380498
F0.002370247384674985
tp1195
F920.1083484279704
F1470682718.283
tp1196
a((F0.0635449759361332
F0.002312167390083814
tp1197
F920.6904248485586
F1470682718.298
tp1198
a((F0.06341336262941119
F0.0023786799985096663
tp1199
F914.9745478108945
F1470682718.315
tp1200
a((F0.06322419734926768
F0.0024002710065590296
tp1201
F909.8018647485553
F1470682718.33
tp1202
a((F0.06349320874366661
F0.0028230356892970996
tp1203
F918.0995022618104
F1470682718.346
tp1204
a((F0.06344784966878882
F0.002972445704295349
tp1205
F908.1182508335719
F1470682718.363
tp1206
a((F0.06361490423569388
F0.0031641976325318664
tp1207
F905.1885100014019
F1470682718.378
tp1208
a((F0.06367596625685719
F0.00367604553069124
tp1209
F900.329808322274
F1470682718.394
tp1210
a((F0.06410968665980381
F0.004005907078200176
tp1211
F892.3842923743683
F1470682718.41
tp1212
a((F0.06416418470560656
F0.004224131909313737
tp1213
F889.1491750412142
F1470682718.426
tp1214
a((F0.06436092680170055
F0.004713529196842474
tp1215
F888.6526847388442
F1470682718.442
tp1216
a((F0.06321450722692869
F0.0046059000044168085
tp1217
F894.0255271057722
F1470682718.458
tp1218
a((F0.06418695593527389
F0.005013439727663969
tp1219
F887.2672343895933
F1470682718.474
tp1220
a((F0.06361767722702502
F0.005131580952291664
tp1221
F894.7317159039228
F1470682718.491
tp1222
a((F0.06263911076885299
F0.005380438460992968
tp1223
F896.7349834393176
F1470682718.507
tp1224
a((F0.0627428028357161
F0.00537523836899169
tp1225
F897.8942393282115
F1470682718.522
tp1226
a((F0.06197611681831102
F0.00550868895729599
tp1227
F910.8594566276973
F1470682718.538
tp1228
a((F0.06218097075461493
F0.005897109982368785
tp1229
F907.8601643481359
F1470682718.554
tp1230
a((F0.06107578467076327
F0.005898282265844507
tp1231
F915.2391115084707
F1470682718.57
tp1232
a((F0.061281691813434326
F0.006289743077354065
tp1233
F909.8599915194849
F1470682718.586
tp1234
a((F0.059611388182571785
F0.0065798056572878225
tp1235
F917.646072497157
F1470682718.602
tp1236
a((F0.05915882172572012
F0.006836762688308659
tp1237
F913.4465599909895
F1470682718.618
tp1238
a((F0.058545418051725855
F0.007175772471349568
tp1239
F911.1494345639543
F1470682718.634
tp1240
a((F0.05726860599039991
F0.007139065003999828
tp1241
F908.7987402950924
F1470682718.65
tp1242
a((F0.05578440885133062
F0.006954705179540154
tp1243
F916.1629481930473
F1470682718.666
tp1244
a((F0.055614225140380384
F0.0073705847389460314
tp1245
F909.6404260366123
F1470682718.683
tp1246
a((F0.053895745370896996
F0.007066464949271519
tp1247
F906.1038877033259
F1470682718.699
tp1248
a((F0.052605679742748684
F0.007326659008430407
tp1249
F908.9511254438902
F1470682718.714
tp1250
a((F0.05266359018652039
F0.007328786175889858
tp1251
F896.3713973662309
F1470682718.73
tp1252
a((F0.049757458795100386
F0.007303730117799185
tp1253
F909.1470500343203
F1470682718.746
tp1254
a((F0.04909545374990302
F0.007503837040374337
tp1255
F905.3278609048041
F1470682718.763
tp1256
a((F0.046940654361274065
F0.00775073145972094
tp1257
F905.7262101957995
F1470682718.778
tp1258
a((F0.04384580181596962
F0.007655913010658681
tp1259
F912.23600911389
F1470682718.794
tp1260
a((F0.0419051543582556
F0.007711300692246792
tp1261
F912.1009120316298
F1470682718.811
tp1262
a((F0.039958902444658176
F0.00795354988724304
tp1263
F907.9025436004928
F1470682718.826
tp1264
a((F0.03672290151728742
F0.007619867088706924
tp1265
F912.5646590850884
F1470682718.842
tp1266
a((F0.03470997984065368
F0.008130753284675274
tp1267
F904.4376474299434
F1470682718.858
tp1268
a((F0.032116277200435736
F0.007598766999150412
tp1269
F903.070861554235
F1470682718.874
tp1270
a((F0.02897170645592203
F0.007545442789925286
tp1271
F900.0980690326537
F1470682718.89
tp1272
a((F0.02704603001652728
F0.007256121564069149
tp1273
F892.7155170724191
F1470682718.906
tp1274
a((F0.024091888187058055
F0.006854819402998593
tp1275
F902.4273001356555
F1470682718.922
tp1276
a((F0.02100903292047822
F0.006584666188659715
tp1277
F905.3302783845072
F1470682718.938
tp1278
a((F0.017953449973865086
F0.007011293990676628
tp1279
F897.6226844935396
F1470682718.954
tp1280
a((F0.014491305204021664
F0.0071862690651611156
tp1281
F898.3579288130738
F1470682718.97
tp1282
a((F0.011991463141072186
F0.006876633782657271
tp1283
F898.4211997333031
F1470682718.986
tp1284
a((F0.009030915960958669
F0.006715948014193421
tp1285
F897.8048857656116
F1470682719.002
tp1286
a((F0.0063517356701518314
F0.0066925586768043464
tp1287
F895.6760765516383
F1470682719.018
tp1288
a((F0.0043597643085234
F0.006447816048004014
tp1289
F897.1781084181869
F1470682719.035
tp1290
a((F0.0019781760469554403
F0.005739245508002333
tp1291
F897.0650170027245
F1470682719.051
tp1292
a((F-6.1681766811141674e-06
F0.005288101978604921
tp1293
F897.5170275892626
F1470682719.067
tp1294
a((F-0.002104309245825297
F0.005053799034693096
tp1295
F901.3310765327924
F1470682719.082
tp1296
a((F-0.004143443341931862
F0.00464011119528699
tp1297
F896.4989390774267
F1470682719.099
tp1298
a((F-0.005979270447015027
F0.003958797105836818
tp1299
F896.2715829064647
F1470682719.115
tp1300
a((F-0.009054780891044048
F0.003325924408457138
tp1301
F898.6649597813279
F1470682719.131
tp1302
a((F-0.011419360787142249
F0.002876635701294579
tp1303
F897.8764226578038
F1470682719.147
tp1304
a((F-0.013960925097317438
F0.0022499590437799013
tp1305
F897.3756453506129
F1470682719.163
tp1306
a((F-0.01602864816849057
F0.0015322909624865793
tp1307
F901.7832695045623
F1470682719.179
tp1308
a((F-0.01742232833544135
F0.001458279731566884
tp1309
F901.8352444315617
F1470682719.194
tp1310
a((F-0.019550976011492138
F0.0011255696692539195
tp1311
F902.9924969030915
F1470682719.21
tp1312
a((F-0.02206195451308287
F0.0007764515853100374
tp1313
F903.5765786239433
F1470682719.226
tp1314
a((F-0.0243633163517136
F0.0006118389678230393
tp1315
F903.4885516478115
F1470682719.242
tp1316
a((F-0.02560323037496229
F-9.030771447232415e-05
tp1317
F909.4317167836335
F1470682719.259
tp1318
a((F-0.02684843368620001
F-3.0161796819439838e-05
tp1319
F906.2659673444224
F1470682719.275
tp1320
a((F-0.027656215749595398
F-0.00046026349532331327
tp1321
F910.2625164623297
F1470682719.291
tp1322
a((F-0.028698251724996196
F-0.001119704991797192
tp1323
F917.0415325674926
F1470682719.306
tp1324
a((F-0.029447502763162704
F-0.0017499104218294825
tp1325
F915.7739559353655
F1470682719.322
tp1326
a((F-0.029671623669948424
F-0.002045472801320332
tp1327
F911.9264544262618
F1470682719.338
tp1328
a((F-0.030419255551957902
F-0.0026348956174642446
tp1329
F905.903433839594
F1470682719.354
tp1330
a((F-0.030818583166348893
F-0.0033280891600606798
tp1331
F911.7239811189678
F1470682719.37
tp1332
a((F-0.03093043177360769
F-0.0037615852383221546
tp1333
F912.1392866370705
F1470682719.386
tp1334
a((F-0.03173714886709013
F-0.0040332550833015925
tp1335
F907.0193545629991
F1470682719.403
tp1336
a((F-0.03179307922676324
F-0.004264142853062266
tp1337
F909.284797202105
F1470682719.419
tp1338
a((F-0.03272104511629622
F-0.004271532238265348
tp1339
F909.8328560594427
F1470682719.435
tp1340
a((F-0.033821468365665054
F-0.0042671011258162824
tp1341
F902.6194166413737
F1470682719.45
tp1342
a((F-0.03479181432056069
F-0.0043768221133753836
tp1343
F904.606644495015
F1470682719.467
tp1344
a((F-0.03605316769380353
F-0.003931613370544903
tp1345
F910.570659272885
F1470682719.483
tp1346
a((F-0.03750637668263077
F-0.0033135520928975373
tp1347
F901.90682592258
F1470682719.499
tp1348
a((F-0.03865240424754984
F-0.00304966291660352
tp1349
F900.4708688370096
F1470682719.515
tp1350
a((F-0.040452918386999485
F-0.002069497912086377
tp1351
F901.5600131943979
F1470682719.531
tp1352
a((F-0.042191890959447184
F-0.0012479478042965136
tp1353
F898.1223528747717
F1470682719.546
tp1354
a((F-0.04388951822896633
F-0.0002821626627217927
tp1355
F893.9787895618175
F1470682719.562
tp1356
a((F-0.045839248517683784
F0.0002057995487514626
tp1357
F896.1047718431485
F1470682719.578
tp1358
a((F-0.047415416309229616
F0.000869640881689431
tp1359
F899.5662379275791
F1470682719.594
tp1360
a((F-0.04910111542843986
F0.001175185135861862
tp1361
F889.6571609836573
F1470682719.611
tp1362
a((F-0.04944664460323301
F0.00172245635989531
tp1363
F898.1299492112075
F1470682719.626
tp1364
a((F-0.04921479843385496
F0.002039685415653841
tp1365
F901.8249064001814
F1470682719.642
tp1366
a((F-0.049671500284906155
F0.0018227428256316013
tp1367
F912.6027943707379
F1470682719.658
tp1368
a((F-0.049924093777108845
F0.0020441480384971638
tp1369
F909.9471707609848
F1470682719.673
tp1370
a((F-0.05067550758446781
F0.0019274921719118316
tp1371
F906.0078653673397
F1470682719.69
tp1372
a((F-0.05127127394133997
F0.0015745754200956422
tp1373
F904.6036476693696
F1470682719.707
tp1374
a((F-0.051032891988741745
F0.0010578420813257066
tp1375
F910.6416366250006
F1470682719.723
tp1376
a((F-0.05244263352623173
F0.0010692966795669229
tp1377
F905.1709486724945
F1470682719.739
tp1378
a((F-0.052750305632401046
F0.0007927415712871294
tp1379
F915.1718595677246
F1470682719.754
tp1380
a((F-0.05427132304958278
F0.0003638128627494392
tp1381
F915.2007500973481
F1470682719.77
tp1382
a((F-0.055429390818822824
F0.0003795886046785139
tp1383
F908.5771512014495
F1470682719.786
tp1384
a((F-0.0576387732417017
F0.0004104963258083226
tp1385
F905.0031008953414
F1470682719.802
tp1386
a((F-0.05849560788855273
F-0.00020605402013659522
tp1387
F908.7120103861754
F1470682719.818
tp1388
a((F-0.060342333886163356
F-0.0006126597340001198
tp1389
F896.5386644160291
F1470682719.835
tp1390
a((F-0.06171199120916674
F-0.001072757981775771
tp1391
F902.8854830662843
F1470682719.851
tp1392
a((F-0.06431905372335421
F-0.0008968796083522775
tp1393
F902.9505119887139
F1470682719.866
tp1394
a((F-0.0677763447515345
F-0.00018259589702306295
tp1395
F895.5653584890191
F1470682719.883
tp1396
a((F-0.06932347741285153
F3.38556947062514e-07
tp1397
F894.9936910042368
F1470682719.899
tp1398
a((F-0.06984132342335563
F-0.00032853590768896834
tp1399
F898.6628914015466
F1470682719.915
tp1400
a((F-0.07018992781307609
F-0.0009008073703698286
tp1401
F906.2095684552814
F1470682719.931
tp1402
a((F-0.06997058029067421
F-0.0013565952714245499
tp1403
F918.3688117661866
F1470682719.946
tp1404
a((F-0.07083192412096681
F-0.0017693644465144125
tp1405
F908.3640521558888
F1470682719.963
tp1406
a((F-0.07014136011774232
F-0.0020158155522720838
tp1407
F911.3678297037363
F1470682719.979
tp1408
a((F-0.0705353804621131
F-0.002834456906668167
tp1409
F904.226835365342
F1470682719.994
tp1410
a((F-0.07028230771672013
F-0.0031739385264207775
tp1411
F903.0479250703049
F1470682720.009
tp1412
a((F-0.07006672841339413
F-0.003638317510986312
tp1413
F905.0103326726276
F1470682720.026
tp1414
a((F-0.06978945944733697
F-0.0038044282811955793
tp1415
F909.4100510612009
F1470682720.042
tp1416
a((F-0.06979246928302003
F-0.0042832675509330825
tp1417
F912.2539850124714
F1470682720.058
tp1418
a((F-0.07069696823517982
F-0.004625543674345111
tp1419
F906.6552615770632
F1470682720.075
tp1420
a((F-0.07104599690834588
F-0.005091492172070043
tp1421
F898.5012380590682
F1470682720.09
tp1422
a((F-0.07062881378158888
F-0.005346647070526364
tp1423
F896.6987201047011
F1470682720.106
tp1424
a((F-0.07050101638677403
F-0.006052525238115112
tp1425
F896.9062158168551
F1470682720.122
tp1426
a((F-0.06982894585984167
F-0.005883479172255197
tp1427
F902.1932464674359
F1470682720.138
tp1428
a((F-0.06949192827794005
F-0.005849065231000887
tp1429
F908.1258700993982
F1470682720.154
tp1430
a((F-0.06856621334915783
F-0.005666662023456411
tp1431
F909.7356105074064
F1470682720.17
tp1432
a((F-0.06889798878922704
F-0.005797321547925436
tp1433
F908.8948248283847
F1470682720.186
tp1434
a((F-0.068868777292515
F-0.005252725083721698
tp1435
F909.8823356926923
F1470682720.202
tp1436
a((F-0.06883653770627908
F-0.005089068791647921
tp1437
F913.7126388900216
F1470682720.219
tp1438
a((F-0.06920385518443412
F-0.004494390066123104
tp1439
F908.9570505420622
F1470682720.235
tp1440
a((F-0.06967305993476874
F-0.004098346801025942
tp1441
F899.1262357849516
F1470682720.251
tp1442
a((F-0.0704233728745522
F-0.004122083295837056
tp1443
F901.465831272376
F1470682720.266
tp1444
a((F-0.06985142570939795
F-0.00344272719674317
tp1445
F897.4848968243872
F1470682720.282
tp1446
a((F-0.0691561934298488
F-0.003167125189077779
tp1447
F898.9637491576618
F1470682720.299
tp1448
a((F-0.06887623262174675
F-0.0031586476485070954
tp1449
F900.3552745577695
F1470682720.316
tp1450
a((F-0.06905592951341634
F-0.0032540416509151265
tp1451
F901.0055735701183
F1470682720.331
tp1452
a((F-0.07016058542900419
F-0.003129083837205621
tp1453
F892.4279819090019
F1470682720.346
tp1454
a((F-0.0686912548214734
F-0.003373600653500169
tp1455
F902.9391358180033
F1470682720.362
tp1456
a((F-0.06834743074104511
F-0.0032855236508917227
tp1457
F901.1756904039428
F1470682720.378
tp1458
a((F-0.06793578340002601
F-0.0029925530117260657
tp1459
F898.6255498785309
F1470682720.394
tp1460
a((F-0.06744367839076346
F-0.0027553801542593874
tp1461
F902.7749433536167
F1470682720.41
tp1462
a((F-0.0670581250106807
F-0.002153164917817325
tp1463
F901.2895103292992
F1470682720.427
tp1464
a((F-0.06731514141979096
F-0.0014124544939512497
tp1465
F902.5298245751213
F1470682720.443
tp1466
a((F-0.06743536746754142
F-0.0007049815696977524
tp1467
F909.7841589041144
F1470682720.458
tp1468
a((F-0.06758588231322778
F0.00039098658998048787
tp1469
F909.3488090714437
F1470682720.474
tp1470
a((F-0.06815819858890693
F0.0006064780289972317
tp1471
F900.5531276782516
F1470682720.49
tp1472
a((F-0.06816472779831242
F0.0008662739445995975
tp1473
F914.0709495624451
F1470682720.506
tp1474
a((F-0.06892089315871852
F0.00167836505701352
tp1475
F905.9329080748598
F1470682720.523
tp1476
a((F-0.06929789703995032
F0.0021220522912729915
tp1477
F903.7997948148261
F1470682720.538
tp1478
a((F-0.07038401261960464
F0.002471579355404472
tp1479
F904.6570720737776
F1470682720.555
tp1480
a((F-0.0699986905095444
F0.0032727913801860126
tp1481
F904.5936126390937
F1470682720.57
tp1482
a((F-0.07045342375522477
F0.0037366893786927586
tp1483
F904.4179532040285
F1470682720.587
tp1484
a((F-0.07157357116706956
F0.003447536235832664
tp1485
F894.5469073265116
F1470682720.602
tp1486
a((F-0.07144976435131312
F0.0031795320337828464
tp1487
F895.3242162580397
F1470682720.619
tp1488
a((F-0.07106305681103013
F0.0027523464684947275
tp1489
F901.1319282986843
F1470682720.635
tp1490
a((F-0.07092879571884766
F0.002345525177065456
tp1491
F905.8923570990971
F1470682720.651
tp1492
a((F-0.070308998835815
F0.0020337851423036283
tp1493
F901.7309740013749
F1470682720.666
tp1494
a((F-0.07021059499293898
F0.001303920987099227
tp1495
F905.0777833647749
F1470682720.682
tp1496
a((F-0.06967247602896168
F0.0009039516585843669
tp1497
F900.3898555429942
F1470682720.699
tp1498
a((F-0.06878126835381249
F6.159309561185125e-05
tp1499
F900.3082483010372
F1470682720.715
tp1500
a((F-0.06788053832201982
F-0.0006119057955660125
tp1501
F909.8229535556297
F1470682720.731
tp1502
a((F-0.06697912981916081
F-0.001484668103768564
tp1503
F908.2575866053816
F1470682720.746
tp1504
a((F-0.06573907462855758
F-0.0017272244463054371
tp1505
F908.7495585150459
F1470682720.764
tp1506
a((F-0.0660250554388442
F-0.002559709023239669
tp1507
F902.2023449914128
F1470682720.779
tp1508
a((F-0.06520661191425338
F-0.0032774568580862294
tp1509
F903.8665525975986
F1470682720.794
tp1510
a((F-0.06537121327352491
F-0.0036456532824315985
tp1511
F896.5459317732432
F1470682720.81
tp1512
a((F-0.06398940700820573
F-0.004123327238499571
tp1513
F903.3898634734571
F1470682720.826
tp1514
a((F-0.06394741148853889
F-0.004549063892818871
tp1515
F891.0964514510109
F1470682720.842
tp1516
a((F-0.06385517536149839
F-0.004928737686731372
tp1517
F887.2335626736292
F1470682720.859
tp1518
a((F-0.06323733895895953
F-0.004853562127602938
tp1519
F890.9603097373542
F1470682720.875
tp1520
a((F-0.06366443149628077
F-0.005078244194985416
tp1521
F887.7047153090504
F1470682720.891
tp1522
a((F-0.06277149608836412
F-0.005025273055900866
tp1523
F892.5937762823627
F1470682720.906
tp1524
a((F-0.06262235824335587
F-0.005439297167249231
tp1525
F896.1411183235218
F1470682720.923
tp1526
a((F-0.0623354794481813
F-0.0052129492310251935
tp1527
F893.8682421619623
F1470682720.938
tp1528
a((F-0.06289486576737198
F-0.005285003563081915
tp1529
F889.908847153005
F1470682720.955
tp1530
a((F-0.06281912091957913
F-0.004737523084696395
tp1531
F895.3330424487049
F1470682720.97
tp1532
a((F-0.06261145240201435
F-0.004795395999485695
tp1533
F891.3197649806435
F1470682720.987
tp1534
a((F-0.0628534114575993
F-0.004689288225642207
tp1535
F888.5190525459919
F1470682721.003
tp1536
a((F-0.06295257280257663
F-0.0045414033432026844
tp1537
F897.4591976852709
F1470682721.018
tp1538
a((F-0.06272775883325338
F-0.00431920245639736
tp1539
F892.8912894136104
F1470682721.035
tp1540
a((F-0.062920098762743
F-0.004266492493700539
tp1541
F895.8505371094342
F1470682721.051
tp1542
a((F-0.06337234539371446
F-0.0035719838716786584
tp1543
F893.9138846707435
F1470682721.067
tp1544
a((F-0.06333294004650196
F-0.0032736111594170937
tp1545
F906.1306164203613
F1470682721.083
tp1546
a((F-0.06324078394247204
F-0.003121578168011439
tp1547
F904.7111805781298
F1470682721.098
tp1548
a((F-0.06295770094141932
F-0.0030608157259502384
tp1549
F906.6631587244207
F1470682721.114
tp1550
a((F-0.06346547965984571
F-0.002845724831219034
tp1551
F910.083852669527
F1470682721.131
tp1552
a((F-0.06375492559072549
F-0.00273566468695908
tp1553
F907.7374731680198
F1470682721.147
tp1554
a((F-0.06382887469727366
F-0.0025743337703821177
tp1555
F906.7212308505343
F1470682721.163
tp1556
a((F-0.06462492143798988
F-0.002729996868040321
tp1557
F900.3007782226208
F1470682721.179
tp1558
a((F-0.06343217153011642
F-0.002812103722889076
tp1559
F904.8981067414178
F1470682721.195
tp1560
a((F-0.06403327201431334
F-0.002652640650776054
tp1561
F901.6361276042343
F1470682721.211
tp1562
a((F-0.06372873496342459
F-0.0026118736598966987
tp1563
F903.9807714771991
F1470682721.227
tp1564
a((F-0.06406464654413273
F-0.0032055846610938256
tp1565
F906.914825498613
F1470682721.242
tp1566
a((F-0.0642428148727159
F-0.00268484909124762
tp1567
F903.2333513517967
F1470682721.259
tp1568
a((F-0.06358043722935094
F-0.0026265663670923525
tp1569
F911.1659220690469
F1470682721.275
tp1570
a((F-0.06408985235731146
F-0.0027068150834649155
tp1571
F902.5595791352408
F1470682721.291
tp1572
a((F-0.06412728356559919
F-0.002870442095236136
tp1573
F906.4044909073185
F1470682721.306
tp1574
a((F-0.06379739046437552
F-0.0031432541267964174
tp1575
F905.0836378272253
F1470682721.323
tp1576
a((F-0.06429102648274926
F-0.002953640046518822
tp1577
F896.3132996882683
F1470682721.339
tp1578
a((F-0.06439247471160313
F-0.0031909564135410157
tp1579
F898.436158954208
F1470682721.354
tp1580
a((F-0.0640108786924693
F-0.0033193908248534566
tp1581
F899.3931309775809
F1470682721.371
tp1582
a((F-0.06398215614108978
F-0.003826924536935217
tp1583
F901.2036413113631
F1470682721.386
tp1584
a((F-0.0643584793823697
F-0.004056710938453278
tp1585
F899.5683407957717
F1470682721.403
tp1586
a((F-0.06424349503559909
F-0.003986926964559877
tp1587
F904.1824722304741
F1470682721.419
tp1588
a((F-0.06457290572880371
F-0.004229671113919671
tp1589
F898.3745326127096
F1470682721.435
tp1590
a((F-0.06411768911378617
F-0.004623267231389791
tp1591
F900.2536956865736
F1470682721.451
tp1592
a((F-0.06532261434722811
F-0.004962797923970999
tp1593
F898.6803981429878
F1470682721.467
tp1594
a((F-0.06462598470625004
F-0.005371828646000126
tp1595
F906.3907982259271
F1470682721.482
tp1596
a((F-0.06457885750618789
F-0.006010985681590266
tp1597
F903.6863903278429
F1470682721.498
tp1598
a((F-0.0647282593957987
F-0.006867001443370427
tp1599
F910.7655823363632
F1470682721.514
tp1600
a((F-0.06484981550053044
F-0.0070535372121725325
tp1601
F903.7571708362726
F1470682721.531
tp1602
a((F-0.06434853656120713
F-0.0071347072478058935
tp1603
F907.1940192405855
F1470682721.546
tp1604
a((F-0.06402973946320442
F-0.007779911144196353
tp1605
F913.4044906984007
F1470682721.562
tp1606
a((F-0.06493090812086509
F-0.007774905468845026
tp1607
F903.6582118433028
F1470682721.578
tp1608
a((F-0.06489210778792885
F-0.008180964905232707
tp1609
F903.3314968963771
F1470682721.594
tp1610
a((F-0.06460415772803282
F-0.007896458769359432
tp1611
F903.0507418568079
F1470682721.611
tp1612
a((F-0.06532319442641461
F-0.007814378848522686
tp1613
F893.298883970065
F1470682721.626
tp1614
a((F-0.06524111850525782
F-0.007737188890812173
tp1615
F888.4657022342618
F1470682721.642
tp1616
a((F-0.06511758328356305
F-0.007689360112928853
tp1617
F889.6821156317804
F1470682721.658
tp1618
a((F-0.06469118347197116
F-0.007260584041131708
tp1619
F896.4885947166632
F1470682721.674
tp1620
a((F-0.06403488592529795
F-0.007140280145557325
tp1621
F896.5793257589509
F1470682721.691
tp1622
a((F-0.06465411819950218
F-0.006456782259232073
tp1623
F893.086207254396
F1470682721.706
tp1624
a((F-0.06481770831918368
F-0.005575099241626274
tp1625
F897.2361278172117
F1470682721.722
tp1626
a((F-0.06543628529790604
F-0.0051065402955412925
tp1627
F890.0458670537462
F1470682721.738
tp1628
a((F-0.06481367697698429
F-0.004544449671825151
tp1629
F892.9025092130573
F1470682721.754
tp1630
a((F-0.06514221263286016
F-0.004019050840037409
tp1631
F897.3298167358457
F1470682721.77
tp1632
a((F-0.06494517591044845
F-0.0035103136768082814
tp1633
F905.3495478445861
F1470682721.786
tp1634
a((F-0.06476234066364417
F-0.0028045383301028206
tp1635
F909.809766290228
F1470682721.802
tp1636
a((F-0.06632108718305689
F-0.0021597329252289427
tp1637
F898.7010233166941
F1470682721.818
tp1638
a((F-0.0657530825754573
F-0.001587428299614822
tp1639
F905.0913959917664
F1470682721.835
tp1640
a((F-0.06569276792769867
F-0.0010006855449953642
tp1641
F898.052532743775
F1470682721.85
tp1642
a((F-0.06566853702175658
F-0.0003523522831062429
tp1643
F890.4483920318461
F1470682721.867
tp1644
a((F-0.06575148071113807
F0.0003765280943341262
tp1645
F880.9297816379939
F1470682721.883
tp1646
a((F-0.06542263012017228
F0.0008877419445973173
tp1647
F877.5692313386371
F1470682721.899
tp1648
a((F-0.06505139807862566
F0.0017895431791363223
tp1649
F875.7935330462547
F1470682721.915
tp1650
a((F-0.06510160404181821
F0.0025124060897359036
tp1651
F861.5402242351037
F1470682721.93
tp1652
a((F-0.062341116311631674
F0.002143088443744751
tp1653
F877.1542409160807
F1470682721.947
tp1654
a((F-0.05943197246046434
F0.0029446872556282457
tp1655
F888.0030614304005
F1470682721.963
tp1656
a((F-0.056433227528878686
F0.0025173647848496703
tp1657
F898.9121448024904
F1470682721.978
tp1658
a((F-0.05409781631450098
F0.0014480042666652456
tp1659
F896.8355880983139
F1470682721.994
tp1660
a((F-0.050785897529742406
F-9.459095827345268e-05
tp1661
F898.9326427152218
F1470682722.011
tp1662
a((F-0.04699936575336068
F-0.0013722855095278479
tp1663
F894.0535149508511
F1470682722.026
tp1664
a((F-0.04379556619734483
F-0.0021207822546324842
tp1665
F906.0380308314225
F1470682722.043
tp1666
a((F-0.03984891376758049
F-0.0025705526703391356
tp1667
F922.3081914917832
F1470682722.058
tp1668
a((F-0.0371986768589444
F-0.0029469180544398677
tp1669
F937.9838056489268
F1470682722.073
tp1670
a((F-0.033846007591217135
F-0.0029163310827416853
tp1671
F952.6148553125437
F1470682722.09
tp1672
a((F-0.03130823209096183
F-0.002959740776304172
tp1673
F960.3002455755598
F1470682722.105
tp1674
a((F-0.029154996595077916
F-0.0027478387154102374
tp1675
F948.7448600309842
F1470682722.121
tp1676
a((F-0.025886497284670962
F-0.002793568206916979
tp1677
F938.8453461788976
F1470682722.137
tp1678
a((F-0.023137609929318317
F-0.0024276442240859864
tp1679
F928.6856461353942
F1470682722.153
tp1680
a((F-0.02010466045398052
F-0.002337459112296351
tp1681
F920.6263306555257
F1470682722.169
tp1682
a((F-0.018170901323757167
F-0.0017544399759219097
tp1683
F913.1072068038458
F1470682722.185
tp1684
a((F-0.015517053849722396
F-0.001275905111207184
tp1685
F901.6601950937212
F1470682722.202
tp1686
a((F-0.011797848611787325
F-5.661215012709889e-05
tp1687
F908.1795673995489
F1470682722.218
tp1688
a((F-0.008279134221974028
F0.00010673554565939758
tp1689
F920.3210942017428
F1470682722.234
tp1690
a((F-0.00417013983464936
F0.0007625849434422409
tp1691
F915.737143138277
F1470682722.25
tp1692
a((F3.844345525725813e-05
F0.0011687937241692033
tp1693
F915.9656759527834
F1470682722.266
tp1694
a((F0.003920322401385861
F0.0020050152057488587
tp1695
F904.0333162189588
F1470682722.282
tp1696
a((F0.006413210873908718
F0.0025180278941458697
tp1697
F910.9718306315538
F1470682722.298
tp1698
a((F0.009980024368287653
F0.0027241553131661803
tp1699
F907.4490518715501
F1470682722.314
tp1700
a((F0.012569925258908021
F0.002895460978600795
tp1701
F902.7182113624235
F1470682722.33
tp1702
a((F0.014613321546705131
F0.003072246773943141
tp1703
F905.5179052232697
F1470682722.346
tp1704
a((F0.016397559723385555
F0.0031647003693467974
tp1705
F897.7730123010167
F1470682722.361
tp1706
a((F0.01814871961706436
F0.0033052286879654883
tp1707
F898.0251999723034
F1470682722.378
tp1708
a((F0.019607769336373326
F0.0030301168839087407
tp1709
F906.5112833002339
F1470682722.393
tp1710
a((F0.021757786949515714
F0.0033463772623493655
tp1711
F896.4459584638946
F1470682722.41
tp1712
a((F0.023453062979659937
F0.003411213978004934
tp1713
F900.7043980808521
F1470682722.426
tp1714
a((F0.024196428151477524
F0.004142628885471027
tp1715
F898.7003819943322
F1470682722.441
tp1716
a((F0.02544326204424665
F0.004104351230994748
tp1717
F899.5077621339202
F1470682722.457
tp1718
a((F0.02531538698102182
F0.0037314507542387963
tp1719
F904.6044053360616
F1470682722.474
tp1720
a((F0.025862676654672217
F0.0036194756495766763
tp1721
F896.1251963701072
F1470682722.49
tp1722
a((F0.026693392728330836
F0.003242201979878318
tp1723
F907.8558747386173
F1470682722.506
tp1724
a((F0.027072322618717837
F0.0032979999224451214
tp1725
F897.8933813878784
F1470682722.522
tp1726
a((F0.027938710336586715
F0.0032291918955431125
tp1727
F902.1766512280876
F1470682722.538
tp1728
a((F0.02887587727054195
F0.0023094236202329944
tp1729
F896.0034149558963
F1470682722.554
tp1730
a((F0.02987258395863285
F0.0018944047562070808
tp1731
F898.0020253668858
F1470682722.57
tp1732
a((F0.029681196322587842
F0.0014222678001245257
tp1733
F900.4815192289946
F1470682722.586
tp1734
a((F0.030009809550049407
F0.000564350125236746
tp1735
F896.5065866200948
F1470682722.602
tp1736
a((F0.030306737132548018
F-0.00016626409095305185
tp1737
F900.2122274250455
F1470682722.618
tp1738
a((F0.031340359966686396
F-0.0002577169900769732
tp1739
F901.5091243342371
F1470682722.634
tp1740
a((F0.03198903740079054
F-0.0008083350414659594
tp1741
F902.8976443540676
F1470682722.65
tp1742
a((F0.03210308268798005
F-0.0013387401481937383
tp1743
F910.4601040719494
F1470682722.666
tp1744
a((F0.0321282489668019
F-0.0017107731330306786
tp1745
F903.9242500812143
F1470682722.681
tp1746
a((F0.03265383731890229
F-0.0018859830299700641
tp1747
F903.3357641213072
F1470682722.698
tp1748
a((F0.03319898251042911
F-0.0021216248481850638
tp1749
F903.6198988404376
F1470682722.714
tp1750
a((F0.03383119061552986
F-0.0022971853296710437
tp1751
F899.1189125157641
F1470682722.73
tp1752
a((F0.0344344181450342
F-0.0018779833671338
tp1753
F905.1191210065606
F1470682722.746
tp1754
a((F0.035291347771982895
F-0.0015577912866876792
tp1755
F907.6097125984342
F1470682722.761
tp1756
a((F0.03711374031404588
F-0.0011587121515450212
tp1757
F908.5037481900399
F1470682722.777
tp1758
a((F0.03753539661849626
F-0.0010180748289913303
tp1759
F910.2527414236158
F1470682722.794
tp1760
a((F0.03810974200900468
F-0.0006909809095354535
tp1761
F916.6619548334498
F1470682722.81
tp1762
a((F0.039826864271041755
F7.852086935810047e-05
tp1763
F915.4544812549435
F1470682722.826
tp1764
a((F0.040460504474854914
F0.00040770180966933495
tp1765
F911.9536683509159
F1470682722.842
tp1766
a((F0.040720434666899605
F0.0007138872886449931
tp1767
F916.7847350698505
F1470682722.857
tp1768
a((F0.03990037792371
F0.0005792697131880961
tp1769
F919.310178340944
F1470682722.873
tp1770
a((F0.039640556119574615
F0.0007562717219542601
tp1771
F912.5265217247456
F1470682722.889
tp1772
a((F0.04012680437479353
F0.001245818889832808
tp1773
F900.8515482334008
F1470682722.906
tp1774
a((F0.03954130788131886
F0.001406565063100909
tp1775
F897.9518513245475
F1470682722.922
tp1776
a((F0.038520943926278105
F0.001397307881071132
tp1777
F892.6478927076373
F1470682722.938
tp1778
a((F0.03649347889681968
F0.0014617679589795625
tp1779
F903.0139516035823
F1470682722.954
tp1780
a((F0.03680194733596372
F0.0018124753609350447
tp1781
F896.6326827849743
F1470682722.97
tp1782
a((F0.036206347993666656
F0.001978932305108735
tp1783
F893.6523952776265
F1470682722.986
tp1784
a((F0.03587731729181295
F0.0021303584524496335
tp1785
F895.6737908507032
F1470682723.002
tp1786
a((F0.03533703815327371
F0.0022833967786607514
tp1787
F901.1918734258663
F1470682723.017
tp1788
a((F0.034926378511313305
F0.0020679257739050967
tp1789
F916.5221392335382
F1470682723.033
tp1790
a((F0.03599424990695969
F0.0026223686701566966
tp1791
F912.7725976121521
F1470682723.05
tp1792
a((F0.036721958558956984
F0.002894710087723399
tp1793
F918.2801227732771
F1470682723.066
tp1794
a((F0.03798534442332864
F0.003015550716813687
tp1795
F920.5953440678825
F1470682723.081
tp1796
a((F0.03929562410817222
F0.0033023021907913836
tp1797
F917.2317525342035
F1470682723.098
tp1798
a((F0.04060528382687212
F0.003627070798514383
tp1799
F915.6051372767997
F1470682723.113
tp1800
a((F0.04253444023402402
F0.004093492194098654
tp1801
F908.9059251106493
F1470682723.129
tp1802
a((F0.04413862554122457
F0.004812237970647385
tp1803
F905.503409865855
F1470682723.145
tp1804
a((F0.045434898026607426
F0.0053064027142298445
tp1805
F898.0064736345839
F1470682723.161
tp1806
a((F0.04692646380987785
F0.005770253507086526
tp1807
F897.8607665453123
F1470682723.178
tp1808
a((F0.04766653538357
F0.006409093431029294
tp1809
F896.1645172331756
F1470682723.193
tp1810
a((F0.04938820098425278
F0.007020629964713873
tp1811
F894.1460384178786
F1470682723.209
tp1812
a((F0.049073924480290826
F0.007279669522459546
tp1813
F907.6618523221042
F1470682723.225
tp1814
a((F0.05041032749186562
F0.0077857959734461855
tp1815
F904.9894311583316
F1470682723.241
tp1816
a((F0.05191872579591333
F0.008447384434825822
tp1817
F899.5177129821345
F1470682723.257
tp1818
a((F0.05282067663213616
F0.008670415316085062
tp1819
F897.5006634703313
F1470682723.273
tp1820
a((F0.05451423111303365
F0.009622139298836265
tp1821
F888.9723287388705
F1470682723.289
tp1822
a((F0.05521749366789221
F0.01036015221151399
tp1823
F890.1311355373284
F1470682723.306
tp1824
a((F0.05607945725514177
F0.01043391247092102
tp1825
F900.4840348035736
F1470682723.322
tp1826
a((F0.05604195677684909
F0.010788085215255093
tp1827
F903.0405709371164
F1470682723.338
tp1828
a((F0.05650972742091274
F0.011843366955565787
tp1829
F907.0858933671923
F1470682723.354
tp1830
a((F0.05690719808985424
F0.012241542541245048
tp1831
F911.4870288060242
F1470682723.37
tp1832
a((F0.0572297629977922
F0.012806491278705116
tp1833
F910.6442198132154
F1470682723.386
tp1834
a((F0.05744508961163452
F0.013093495235797434
tp1835
F911.9985482604103
F1470682723.402
tp1836
a((F0.05858454289158507
F0.01364735705173402
tp1837
F908.4324353121573
F1470682723.418
tp1838
a((F0.059032441176952784
F0.01412779534863054
tp1839
F907.2707634432323
F1470682723.433
tp1840
a((F0.059140774943687385
F0.014616763497304421
tp1841
F907.3438382628909
F1470682723.449
tp1842
a((F0.05925918348957274
F0.015204189797523629
tp1843
F906.9949059822261
F1470682723.465
tp1844
a((F0.05832901081601218
F0.014444878104146483
tp1845
F915.8225371528872
F1470682723.481
tp1846
a((F0.05734695748327131
F0.014002554529594726
tp1847
F922.3013713894576
F1470682723.498
tp1848
a((F0.057051668935707706
F0.013499048220069962
tp1849
F920.6406139437713
F1470682723.513
tp1850
a((F0.05751594476169901
F0.013486126039036601
tp1851
F911.0198713579227
F1470682723.529
tp1852
a((F0.05696081516731035
F0.01259955842331265
tp1853
F911.0519901338496
F1470682723.545
tp1854
a((F0.05674070670349206
F0.011917109422478896
tp1855
F903.6007674175322
F1470682723.561
tp1856
a((F0.05831172959579303
F0.011046881332044931
tp1857
F893.8500815912762
F1470682723.577
tp1858
a((F0.05941246456248832
F0.01042214644845594
tp1859
F892.8209037896677
F1470682723.594
tp1860
a((F0.06054908794393273
F0.01024414850112348
tp1861
F886.6309552529805
F1470682723.61
tp1862
a((F0.06131790597470261
F0.010091128326813102
tp1863
F887.3698930423552
F1470682723.626
tp1864
a((F0.061234253018629926
F0.009538392415239521
tp1865
F892.4701522459591
F1470682723.641
tp1866
a((F0.06112916693238483
F0.00865710900003246
tp1867
F895.6195902553403
F1470682723.657
tp1868
a((F0.061216199637193366
F0.008208221954726081
tp1869
F898.1006906863913
F1470682723.673
tp1870
a((F0.06125220064725552
F0.008402138099679683
tp1871
F896.246948112218
F1470682723.69
tp1872
a((F0.06156223496863051
F0.007909912968806125
tp1873
F895.9025972374886
F1470682723.706
tp1874
a((F0.06187364595094225
F0.007756866166995789
tp1875
F893.0796925993709
F1470682723.722
tp1876
a((F0.06104495259889817
F0.007445923868214452
tp1877
F897.4202115257285
F1470682723.738
tp1878
a((F0.06091088149571989
F0.00761008681133166
tp1879
F901.8770476595482
F1470682723.754
tp1880
a((F0.06067518700062213
F0.0069939552244996225
tp1881
F907.5817561355502
F1470682723.77
tp1882
a((F0.061685284872375554
F0.0071014094048950874
tp1883
F905.5199350879361
F1470682723.786
tp1884
a((F0.06325721650943326
F0.007044906822202024
tp1885
F909.2566273140044
F1470682723.801
tp1886
a((F0.06430548917521507
F0.007366842974486989
tp1887
F902.3529137412463
F1470682723.817
tp1888
a((F0.0655392735630041
F0.007344306155902958
tp1889
F896.4114204688983
F1470682723.833
tp1890
a((F0.06545227242505358
F0.007552060597758205
tp1891
F906.5852029741818
F1470682723.849
tp1892
a((F0.06646221001461657
F0.008383644706413625
tp1893
F894.5702943996845
F1470682723.865
tp1894
a((F0.06705485944683558
F0.008165904336189472
tp1895
F893.9801295863856
F1470682723.881
tp1896
a((F0.06687697334594021
F0.008651244589189262
tp1897
F901.2779142861903
F1470682723.897
tp1898
a((F0.06697478708365501
F0.008905922361301924
tp1899
F897.3845582516092
F1470682723.914
tp1900
a((F0.06812838764731745
F0.00950116505719126
tp1901
F898.3021432412052
F1470682723.929
tp1902
a((F0.06713816706875626
F0.009368234881374164
tp1903
F900.7011654170063
F1470682723.945
tp1904
a((F0.06774736471748231
F0.010166237349206948
tp1905
F901.8858009406188
F1470682723.961
tp1906
a((F0.06828256910743366
F0.010407810828111262
tp1907
F903.7754403992902
F1470682723.977
tp1908
a((F0.06768253104088533
F0.010272255014092548
tp1909
F909.2978980753335
F1470682723.993
tp1910
a((F0.06717045166253326
F0.01044179348618766
tp1911
F911.0060909587281
F1470682724.009
tp1912
a((F0.06704476660344952
F0.010749467458877456
tp1913
F906.0388067332337
F1470682724.025
tp1914
a((F0.06570773485638004
F0.011188038085828661
tp1915
F910.2337517646538
F1470682724.041
tp1916
a((F0.06563596444801732
F0.011520287696146629
tp1917
F909.3713334909664
F1470682724.057
tp1918
a((F0.06553465241216734
F0.01197545233122283
tp1919
F905.9996355510534
F1470682724.073
tp1920
a((F0.06498280971481295
F0.01237915104949001
tp1921
F906.5237319994105
F1470682724.09
tp1922
a((F0.0653512438991761
F0.012564186424459953
tp1923
F899.091567447562
F1470682724.105
tp1924
a((F0.06438175246717627
F0.012765610978506826
tp1925
F905.2452369318786
F1470682724.121
tp1926
a((F0.06479761429256893
F0.013332450784970385
tp1927
F893.5503274898604
F1470682724.137
tp1928
a((F0.06417791943220871
F0.013474446645027767
tp1929
F900.5126723966525
F1470682724.154
tp1930
a((F0.06372284883863297
F0.014276944770560464
tp1931
F900.5187890643202
F1470682724.17
tp1932
a((F0.06272727791658836
F0.014640664527929005
tp1933
F898.6458094052078
F1470682724.186
tp1934
a((F0.06164139941309129
F0.014781311329608115
tp1935
F903.3796555674552
F1470682724.202
tp1936
a((F0.061113259568881056
F0.014786814992050621
tp1937
F897.0947144379013
F1470682724.218
tp1938
a((F0.05968081756877854
F0.01431790702808989
tp1939
F900.7117615910909
F1470682724.234
tp1940
a((F0.05769210459194421
F0.014209776754048224
tp1941
F908.9017487905892
F1470682724.25
tp1942
a((F0.05684870715826028
F0.013901827952470108
tp1943
F912.9137036410986
F1470682724.265
tp1944
a((F0.05631859701760375
F0.014012186434475386
tp1945
F909.8420960421759
F1470682724.281
tp1946
a((F0.05459980438612036
F0.013707887503352953
tp1947
F907.5899314941561
F1470682724.298
tp1948
a((F0.05427775484258072
F0.013471420205672425
tp1949
F901.8800413127209
F1470682724.314
tp1950
a((F0.0519228876296558
F0.012661467556069637
tp1951
F911.6841630887809
F1470682724.33
tp1952
a((F0.051632349413712794
F0.01289409187017726
tp1953
F912.5776173242084
F1470682724.346
tp1954
a((F0.050695115704451205
F0.012623594182230344
tp1955
F909.2241578417734
F1470682724.362
tp1956
a((F0.049725334993996104
F0.012124811213150235
tp1957
F912.6412973460943
F1470682724.377
tp1958
a((F0.04886078706025277
F0.012245087001776811
tp1959
F906.271488332768
F1470682724.393
tp1960
a((F0.047535345752019204
F0.01175572172462758
tp1961
F897.6711604186045
F1470682724.41
tp1962
a((F0.04525773552458897
F0.01122223703455293
tp1963
F904.3123406228999
F1470682724.426
tp1964
a((F0.04308042651400886
F0.01059394791357245
tp1965
F903.2913736845643
F1470682724.441
tp1966
a((F0.04107371919485497
F0.010420724790291401
tp1967
F910.1204203263477
F1470682724.457
tp1968
a((F0.04024783946130711
F0.010391725450647801
tp1969
F909.6451440702874
F1470682724.473
tp1970
a((F0.03901847538558673
F0.01002158118317321
tp1971
F911.9166033570677
F1470682724.49
tp1972
a((F0.03829988092417937
F0.01026427703748338
tp1973
F907.9857839833835
F1470682724.506
tp1974
a((F0.03837247181825912
F0.010394811116077278
tp1975
F902.0436076299216
F1470682724.522
tp1976
a((F0.038020197290491546
F0.010166498085854054
tp1977
F906.193212596469
F1470682724.538
tp1978
a((F0.03829487337751229
F0.010230768816442052
tp1979
F895.9584641073887
F1470682724.553
tp1980
a((F0.03761927790241805
F0.009843681246643742
tp1981
F892.9465863913863
F1470682724.569
tp1982
a((F0.03786875113574475
F0.0101917013182049
tp1983
F897.8933578431654
F1470682724.585
tp1984
a((F0.03848865479412818
F0.010326576547141421
tp1985
F892.5638908329745
F1470682724.601
tp1986
a((F0.03859235594847372
F0.010204840277860892
tp1987
F904.0442997860747
F1470682724.618
tp1988
a((F0.03857156952423111
F0.010272029191557727
tp1989
F903.9136738654331
F1470682724.634
tp1990
a((F0.03753300145428479
F0.009748105324571323
tp1991
F912.3494542578744
F1470682724.649
tp1992
a((F0.03657997487376867
F0.009563143083091391
tp1993
F914.2885424961082
F1470682724.666
tp1994
a((F0.03524960658054973
F0.009102505583245097
tp1995
F920.0383917488354
F1470682724.682
tp1996
a((F0.03534486421988382
F0.009066960600231178
tp1997
F914.6672371555596
F1470682724.698
tp1998
a((F0.035282633145487984
F0.008749118477118508
tp1999
F911.8901563752809
F1470682724.713
tp2000
a((F0.0352856807647289
F0.008783634210951357
tp2001
F905.2191255501277
F1470682724.729
tp2002
a((F0.034824374365132096
F0.008871065632076758
tp2003
F901.1233396285747
F1470682724.746
tp2004
a((F0.03380138374873575
F0.00871976080817494
tp2005
F903.2174606268984
F1470682724.761
tp2006
a((F0.03229088858807103
F0.008412183810174815
tp2007
F899.0191810911026
F1470682724.777
tp2008
a((F0.03015292826681407
F0.008531830691586294
tp2009
F893.0902417882752
F1470682724.794
tp2010
a((F0.02869438371844355
F0.008540502851301186
tp2011
F895.6240405671774
F1470682724.809
tp2012
a((F0.026753891573504156
F0.00871666713120274
tp2013
F905.2613573902182
F1470682724.825
tp2014
a((F0.02547142494083884
F0.0092148631816366
tp2015
F906.9108766220543
F1470682724.841
tp2016
a((F0.02488905261625134
F0.009661148915325372
tp2017
F908.6800962992886
F1470682724.857
tp2018
a((F0.023261806917624566
F0.010244945915925136
tp2019
F910.0951905659399
F1470682724.873
tp2020
a((F0.0231038357399571
F0.01068923118848032
tp2021
F903.8797067521089
F1470682724.89
tp2022
a((F0.021045539155760823
F0.011212527479585064
tp2023
F897.602677100776
F1470682724.906
tp2024
a((F0.019505860363084684
F0.011738715671494237
tp2025
F896.8721000056164
F1470682724.922
tp2026
a((F0.017982183283179635
F0.012145880875314912
tp2027
F900.0911649554588
F1470682724.937
tp2028
a((F0.017379608909293447
F0.013243088791104326
tp2029
F898.2703892030967
F1470682724.954
tp2030
a((F0.01701317928027705
F0.013881501822459893
tp2031
F904.7305394501282
F1470682724.969
tp2032
a((F0.01801199202506356
F0.014897546556455659
tp2033
F906.9320580548157
F1470682724.985
tp2034
a((F0.01839412601966792
F0.01591170691309555
tp2035
F902.1093824952654
F1470682725.002
tp2036
a((F0.01898897619138604
F0.015916705407919323
tp2037
F910.9932585859746
F1470682725.017
tp2038
a((F0.019129995199865434
F0.016716398880727727
tp2039
F904.6470573238996
F1470682725.033
tp2040
a((F0.018907520017239398
F0.016699858993746097
tp2041
F903.7824989300605
F1470682725.049
tp2042
a((F0.017965012952660446
F0.016236158423070385
tp2043
F909.538185459191
F1470682725.065
tp2044
a((F0.017263868322704334
F0.01581374954517216
tp2045
F908.4629590802854
F1470682725.081
tp2046
a((F0.017130056391387757
F0.014973097737382427
tp2047
F908.380002061592
F1470682725.097
tp2048
a((F0.016715018898646516
F0.014111820914939757
tp2049
F913.574766984512
F1470682725.113
tp2050
a((F0.01726820076392753
F0.012999154070392307
tp2051
F907.235011591114
F1470682725.129
tp2052
a((F0.017035496189556888
F0.01164295556950717
tp2053
F910.2269511520522
F1470682725.145
tp2054
a((F0.01687349334566517
F0.010680741935750568
tp2055
F905.9485468446481
F1470682725.162
tp2056
a((F0.016672114229381453
F0.010125347294062548
tp2057
F907.8865448279764
F1470682725.178
tp2058
a((F0.01539775777632362
F0.009722661088414707
tp2059
F898.866188352971
F1470682725.193
tp2060
a((F0.013985754197221164
F0.009540079497917561
tp2061
F893.2064548127305
F1470682725.209
tp2062
a((F0.012337477270716228
F0.009727531127834772
tp2063
F895.1288306109888
F1470682725.225
tp2064
a((F0.010329103877760175
F0.009748422227529623
tp2065
F893.6070535420804
F1470682725.241
tp2066
a((F0.007766989025748432
F0.010134254860332984
tp2067
F896.0682001844143
F1470682725.257
tp2068
a((F0.005966635058633061
F0.01095606592276062
tp2069
F897.089962429649
F1470682725.273
tp2070
a((F0.004049904287851062
F0.011862014050719112
tp2071
F901.4167848446009
F1470682725.289
tp2072
a((F0.0013492163613525786
F0.012830600937188383
tp2073
F896.8135392497995
F1470682725.305
tp2074
a((F-0.0015471751432188055
F0.01384542807855039
tp2075
F905.5642597165329
F1470682725.322
tp2076
a((F-0.004230923582442838
F0.01516822759432846
tp2077
F906.7945552384897
F1470682725.338
tp2078
a((F-0.0070054335185158615
F0.01632793296289657
tp2079
F914.5129369308333
F1470682725.354
tp2080
a((F-0.009930951955340368
F0.017406082419065702
tp2081
F915.399765127031
F1470682725.37
tp2082
a((F-0.013336587958979896
F0.01843939394617077
tp2083
F919.1683652164015
F1470682725.386
tp2084
a((F-0.01519581854536006
F0.01985150375901349
tp2085
F910.9473233409262
F1470682725.402
tp2086
a((F-0.017416972922023734
F0.021147801532523297
tp2087
F908.7357351255469
F1470682725.417
tp2088
a((F-0.019229986361881685
F0.02171838323966492
tp2089
F907.480612366036
F1470682725.434
tp2090
a((F-0.020286558503093046
F0.022234226454190743
tp2091
F909.5680853997947
F1470682725.449
tp2092
a((F-0.020874782982195018
F0.02286940438605349
tp2093
F902.7547555537454
F1470682725.465
tp2094
a((F-0.021570416410675183
F0.022516467271390603
tp2095
F905.6682966259647
F1470682725.481
tp2096
a((F-0.021278967341808116
F0.02321555205796711
tp2097
F906.0851848598097
F1470682725.498
tp2098
a((F-0.02097184698051136
F0.022972151561491683
tp2099
F902.8310949245536
F1470682725.513
tp2100
a((F-0.021961577068709503
F0.022498800490756837
tp2101
F904.1231538879941
F1470682725.53
tp2102
a((F-0.022207015037000195
F0.022319607180963378
tp2103
F903.2594956540172
F1470682725.546
tp2104
a((F-0.022036632571579735
F0.021531864967177187
tp2105
F907.5497479472539
F1470682725.561
tp2106
a((F-0.02242763699206628
F0.020906882558603193
tp2107
F909.1076756622033
F1470682725.577
tp2108
a((F-0.021963018562656898
F0.020339966018648216
tp2109
F907.1547222638605
F1470682725.593
tp2110
a((F-0.02115447194301395
F0.019705554509492594
tp2111
F906.3186811994763
F1470682725.609
tp2112
a((F-0.02050551021333788
F0.019373422177699412
tp2113
F903.8869610448357
F1470682725.625
tp2114
a((F-0.0195171247491758
F0.018717183158311147
tp2115
F908.4266824381335
F1470682725.641
tp2116
a((F-0.017167228409527512
F0.01841473093656616
tp2117
F904.6467115668589
F1470682725.657
tp2118
a((F-0.01565171356352263
F0.01823972322529697
tp2119
F906.6093596233393
F1470682725.673
tp2120
a((F-0.01374253623368638
F0.017788334682717
tp2121
F910.9283569986299
F1470682725.69
tp2122
a((F-0.011523039024009389
F0.017687413219360657
tp2123
F908.257219389744
F1470682725.706
tp2124
a((F-0.009451692956671911
F0.017371185717844715
tp2125
F910.0891083811696
F1470682725.722
tp2126
a((F-0.007478029678170075
F0.017125532366125143
tp2127
F908.7510199555484
F1470682725.738
tp2128
a((F-0.005579242837710444
F0.017219918300316522
tp2129
F907.5954824168555
F1470682725.754
tp2130
a((F-0.003515535177475153
F0.016802945208020625
tp2131
F910.6651502354464
F1470682725.769
tp2132
a((F-0.001896630627720086
F0.016351735225039746
tp2133
F915.2764378206209
F1470682725.786
tp2134
a((F0.0006788747706182403
F0.016465792209586768
tp2135
F908.9440652101357
F1470682725.802
tp2136
a((F0.002010947565181619
F0.01644467351852278
tp2137
F903.7592349511874
F1470682725.818
tp2138
a((F0.0035166359134225357
F0.016308853273245685
tp2139
F900.9530700877092
F1470682725.834
tp2140
a((F0.004658218211162342
F0.016071829270918738
tp2141
F900.860094568073
F1470682725.849
tp2142
a((F0.006074871541864385
F0.01635321197624739
tp2143
F901.8768099277629
F1470682725.866
tp2144
a((F0.007576641335443574
F0.016246804898409625
tp2145
F902.2188850811461
F1470682725.882
tp2146
a((F0.008993645183180885
F0.016161915036855705
tp2147
F901.3176591508695
F1470682725.897
tp2148
a((F0.009667398754815305
F0.01627544033017764
tp2149
F903.1453627854993
F1470682725.913
tp2150
a((F0.011586693379376737
F0.016167212491883336
tp2151
F904.9599466037289
F1470682725.93
tp2152
a((F0.012114546667792771
F0.015835552034910823
tp2153
F906.6799767221943
F1470682725.946
tp2154
a((F0.01347859688736579
F0.015141794019893398
tp2155
F906.6075258016386
F1470682725.961
tp2156
a((F0.015244253520439736
F0.014682017284706044
tp2157
F903.8070547472587
F1470682725.977
tp2158
a((F0.016933392461947912
F0.013864859027989933
tp2159
F899.731012049075
F1470682725.993
tp2160
a((F0.018725046544864097
F0.013341394862968701
tp2161
F897.6213393940627
F1470682726.01
tp2162
a((F0.020027973976906224
F0.012711011868535228
tp2163
F898.9779327107956
F1470682726.026
tp2164
a((F0.021736468918116952
F0.01202446594187096
tp2165
F904.8545131651613
F1470682726.042
tp2166
a((F0.022989461013733253
F0.01094658037564664
tp2167
F908.0262194936763
F1470682726.058
tp2168
a((F0.02473807355122576
F0.01102438104133218
tp2169
F902.1929874315917
F1470682726.074
tp2170
a((F0.02571970076597188
F0.010168999599217172
tp2171
F912.3857045779056
F1470682726.09
tp2172
a((F0.026687021393970313
F0.009881100611082373
tp2173
F918.2062614013428
F1470682726.106
tp2174
a((F0.028169466808554727
F0.009433429077965242
tp2175
F922.5572242888015
F1470682726.122
tp2176
a((F0.03011343824955722
F0.009207725792077626
tp2177
F921.0713299196087
F1470682726.138
tp2178
a((F0.031870968084603664
F0.009040643373216306
tp2179
F921.1443089014516
F1470682726.154
tp2180
a((F0.03221355755776072
F0.008762612871723707
tp2181
F926.6626972253038
F1470682726.169
tp2182
a((F0.032514352356508035
F0.00869836044657911
tp2183
F926.3172528126156
F1470682726.185
tp2184
a((F0.033638254286339056
F0.008745569685960831
tp2185
F917.6571719886039
F1470682726.201
tp2186
a((F0.033906516012681076
F0.008489023556322995
tp2187
F918.8413007692326
F1470682726.217
tp2188
a((F0.03530579310337579
F0.008290727319329639
tp2189
F909.1337248126474
F1470682726.234
tp2190
a((F0.035728204446683044
F0.008219755773728181
tp2191
F910.4486024609971
F1470682726.25
tp2192
a((F0.037295175437331296
F0.008622065961394835
tp2193
F900.8438753028222
F1470682726.266
tp2194
a((F0.03690158967686672
F0.008295531965928245
tp2195
F907.7049663302605
F1470682726.282
tp2196
a((F0.037020822179260116
F0.008376830629116481
tp2197
F900.069314383006
F1470682726.297
tp2198
a((F0.037810422750599156
F0.008263252486297348
tp2199
F904.9975316055595
F1470682726.313
tp2200
a((F0.03760016338086525
F0.008408409685768921
tp2201
F898.6776495504853
F1470682726.33
tp2202
a((F0.037851270721106146
F0.007887550587115455
tp2203
F902.126895577498
F1470682726.346
tp2204
a((F0.03891373185713551
F0.007959855628400231
tp2205
F899.3958637753965
F1470682726.362
tp2206
a((F0.039095288121340686
F0.007515932010401558
tp2207
F898.5235786364935
F1470682726.378
tp2208
a((F0.03926697636970677
F0.007140835466711874
tp2209
F905.7868816486261
F1470682726.393
tp2210
a((F0.040850002208996115
F0.007252346254127349
tp2211
F903.2947381072174
F1470682726.409
tp2212
a((F0.04142751715443833
F0.007148589211571695
tp2213
F903.3529405200826
F1470682726.426
tp2214
a((F0.04231698559891291
F0.006551537397230519
tp2215
F911.8255707727805
F1470682726.441
tp2216
a((F0.042686277226802835
F0.006321118747076275
tp2217
F916.1181737515167
F1470682726.457
tp2218
a((F0.043700392817587023
F0.006337515305375983
tp2219
F909.4979700444779
F1470682726.473
tp2220
a((F0.04428062010235753
F0.006229548194134112
tp2221
F913.4600769857018
F1470682726.49
tp2222
a((F0.04487757433682991
F0.006129341717096802
tp2223
F915.2354191678027
F1470682726.506
tp2224
a((F0.04465876047945268
F0.005633589710797037
tp2225
F913.1947502548621
F1470682726.522
tp2226
a((F0.044747122930504944
F0.00535916756104802
tp2227
F907.6431318535133
F1470682726.537
tp2228
a((F0.044956495788432506
F0.005253274613190361
tp2229
F898.5429573328278
F1470682726.553
tp2230
a((F0.04491539892283295
F0.004828860921035631
tp2231
F903.1392925361287
F1470682726.57
tp2232
a((F0.044637405862981316
F0.0046342730472984615
tp2233
F904.669046553269
F1470682726.586
tp2234
a((F0.04589901123690294
F0.0044510188215958636
tp2235
F899.2596977323298
F1470682726.602
tp2236
a((F0.04750567778378141
F0.004651791095693383
tp2237
F888.4081514801139
F1470682726.617
tp2238
a((F0.048682056567227835
F0.0047060685100304015
tp2239
F897.795203896194
F1470682726.633
tp2240
a((F0.05162510979777388
F0.005235418338270972
tp2241
F886.3270909664163
F1470682726.65
tp2242
a((F0.053597954411074275
F0.005730913732964782
tp2243
F879.413326371645
F1470682726.666
tp2244
a((F0.054950268998235526
F0.005841259898591794
tp2245
F882.9154697593351
F1470682726.681
tp2246
a((F0.056669393578800624
F0.005954701846867997
tp2247
F884.0127329991155
F1470682726.697
tp2248
a((F0.058407591859695025
F0.0065023051993179795
tp2249
F890.3284221797644
F1470682726.713
tp2250
a((F0.059985856772638776
F0.007234768554312054
tp2251
F892.1553718514621
F1470682726.73
tp2252
a((F0.061654784505987964
F0.0077267843179089435
tp2253
F898.9662187449958
F1470682726.746
tp2254
a((F0.06354674478425727
F0.008509387731064499
tp2255
F897.1110172513628
F1470682726.761
tp2256
a((F0.06479317061335091
F0.009163998149233998
tp2257
F903.0114199815823
F1470682726.777
tp2258
a((F0.06603974882047489
F0.009866605580465681
tp2259
F904.2693314435021
F1470682726.793
tp2260
a((F0.06639702192554518
F0.00993849936405359
tp2261
F907.725835531031
F1470682726.809
tp2262
a((F0.06756186291020129
F0.010296915834120743
tp2263
F906.4615320680026
F1470682726.825
tp2264
a((F0.06801006350818715
F0.010193868730252131
tp2265
F912.8131989869009
F1470682726.841
tp2266
a((F0.06882657149921034
F0.010767301087412594
tp2267
F912.7509586413219
F1470682726.857
tp2268
a((F0.06809402191028324
F0.010329530909131017
tp2269
F923.3586949756816
F1470682726.873
tp2270
a((F0.06953400518573073
F0.01083673025450835
tp2271
F913.7042578880814
F1470682726.89
tp2272
a((F0.070014211273373
F0.01070810128591991
tp2273
F909.3011919401374
F1470682726.906
tp2274
a((F0.06912834548734507
F0.010515938373514265
tp2275
F910.401990855341
F1470682726.922
tp2276
a((F0.07044658086139313
F0.011156809676383994
tp2277
F900.2007489773601
F1470682726.938
tp2278
a((F0.06965584259863253
F0.010714033038588724
tp2279
F906.0072212331947
F1470682726.954
tp2280
a((F0.07050826660110877
F0.011094098487686933
tp2281
F899.5040770466642
F1470682726.969
tp2282
a((F0.06970675621688507
F0.010909856044055803
tp2283
F901.7205536974229
F1470682726.986
tp2284
a((F0.06811002857040419
F0.010359500226695047
tp2285
F906.6573276462759
F1470682727.002
tp2286
a((F0.06693510759891493
F0.009872920379961722
tp2287
F909.0245338897348
F1470682727.017
tp2288
a((F0.06695329382500598
F0.009683761722139335
tp2289
F903.8287908096582
F1470682727.033
tp2290
a((F0.06596469843400228
F0.009313376283684886
tp2291
F903.2798045077153
F1470682727.05
tp2292
a((F0.06577168765178869
F0.00892799264599426
tp2293
F897.5058074890478
F1470682727.066
tp2294
a((F0.06516971689844206
F0.008566289272281842
tp2295
F898.4907091976974
F1470682727.081
tp2296
a((F0.06381766061543245
F0.008139775676373147
tp2297
F900.0938307306682
F1470682727.097
tp2298
a((F0.06266331197519555
F0.007138201379964645
tp2299
F900.2923882518414
F1470682727.113
tp2300
a((F0.05991594373295129
F0.006018526926882457
tp2301
F913.1107882146364
F1470682727.129
tp2302
a((F0.05956501589385201
F0.005464657468554605
tp2303
F906.628537692621
F1470682727.145
tp2304
a((F0.057323573098067085
F0.004834496735023321
tp2305
F907.5430392572023
F1470682727.161
tp2306
a((F0.057620946799203564
F0.004074426591869521
tp2307
F900.5873733834933
F1470682727.177
tp2308
a((F0.05635930352810471
F0.0037488520477359085
tp2309
F905.0378488870339
F1470682727.193
tp2310
a((F0.055592060899923836
F0.00356625663130633
tp2311
F902.4338966088567
F1470682727.21
tp2312
a((F0.055712790654834435
F0.003342985238995343
tp2313
F899.9092279964002
F1470682727.226
tp2314
a((F0.0553564018263345
F0.002992175607991144
tp2315
F899.4555547190396
F1470682727.242
tp2316
a((F0.057660920764010935
F0.0034319931047305506
tp2317
F891.686805147634
F1470682727.258
tp2318
a((F0.0578438715643606
F0.0036655127298797587
tp2319
F897.6233096647758
F1470682727.274
tp2320
a((F0.05979327081980422
F0.004364867288976666
tp2321
F897.5596242810038
F1470682727.29
tp2322
a((F0.06113392201347377
F0.004737014828637899
tp2323
F903.0979577768283
F1470682727.306
tp2324
a((F0.06410279868703901
F0.0053154342017157135
tp2325
F898.4694530351283
F1470682727.322
tp2326
a((F0.0648114805463869
F0.005652775573022475
tp2327
F909.2333086007079
F1470682727.338
tp2328
a((F0.06745114691221425
F0.0062897663996315575
tp2329
F895.2663197541038
F1470682727.354
tp2330
a((F0.06907287895789588
F0.006711186407678612
tp2331
F896.3822055982255
F1470682727.369
tp2332
a((F0.06869448290389826
F0.006899535515628095
tp2333
F906.1691700260515
F1470682727.385
tp2334
a((F0.06932288715940114
F0.0067278489652792045
tp2335
F903.5564114716768
F1470682727.402
tp2336
a((F0.06938927731840284
F0.0065105295552037095
tp2337
F911.9507654308964
F1470682727.417
tp2338
a((F0.06970745893825767
F0.006759207097111983
tp2339
F910.9219910692252
F1470682727.433
tp2340
a((F0.07009583275338678
F0.0069325311743597805
tp2341
F912.7639662359956
F1470682727.45
tp2342
a((F0.07103062383839692
F0.006685736343147733
tp2343
F907.8999964603181
F1470682727.466
tp2344
a((F0.07200802906175065
F0.007144900859290678
tp2345
F900.6629199760696
F1470682727.482
tp2346
a((F0.07252646963646933
F0.007178791518059234
tp2347
F900.9035593746033
F1470682727.498
tp2348
a((F0.07081638261160113
F0.006623261793975048
tp2349
F906.2102697870008
F1470682727.513
tp2350
a((F0.07211613025935097
F0.006806730128294534
tp2351
F903.5314016018325
F1470682727.53
tp2352
a((F0.07286142805017472
F0.0072046219253048376
tp2353
F899.9203311574594
F1470682727.546
tp2354
a((F0.07399339026862523
F0.0070626291548532
tp2355
F896.1280838070531
F1470682727.561
tp2356
a((F0.07362096792694331
F0.007035409958832912
tp2357
F899.4672325973179
F1470682727.577
tp2358
a((F0.0742057296746455
F0.007048963488384
tp2359
F891.8535607857086
F1470682727.594
tp2360
a((F0.0733450504752629
F0.007116348236108259
tp2361
F901.7582251466736
F1470682727.609
tp2362
a((F0.07349888057544453
F0.007079665024159935
tp2363
F902.0181379349923
F1470682727.625
tp2364
a((F0.07331683973555904
F0.007208409595927361
tp2365
F903.7863670263555
F1470682727.641
tp2366
a((F0.07421093380777585
F0.007145980751370875
tp2367
F908.7288881266409
F1470682727.657
tp2368
a((F0.07433179873115327
F0.006899755680655152
tp2369
F906.560885178872
F1470682727.673
tp2370
a((F0.07579958171382307
F0.006801606423908592
tp2371
F902.0820960186709
F1470682727.69
tp2372
a((F0.07576228540387449
F0.0068649115711806995
tp2373
F907.4195699914619
F1470682727.706
tp2374
a((F0.07652934120049816
F0.006994237716140917
tp2375
F905.6900271877194
F1470682727.722
tp2376
a((F0.07744540212156477
F0.006890385413168765
tp2377
F907.5985885359416
F1470682727.737
tp2378
a((F0.07823631146646576
F0.007248040217427546
tp2379
F908.0922135923653
F1470682727.753
tp2380
a((F0.0781810099635956
F0.007288461467978344
tp2381
F914.1776810051467
F1470682727.769
tp2382
a((F0.07965568986748364
F0.007129492194265579
tp2383
F904.112270430961
F1470682727.785
tp2384
a((F0.07896910419301595
F0.006642272791192478
tp2385
F910.9355274258303
F1470682727.801
tp2386
a((F0.0792060932264884
F0.006404146566577652
tp2387
F902.8062141672272
F1470682727.817
tp2388
a((F0.07994187551730861
F0.005915093807907656
tp2389
F893.900305951249
F1470682727.833
tp2390
a((F0.07957309085530058
F0.005495014408517447
tp2391
F896.1379361393125
F1470682727.849
tp2392
a((F0.0796562732420962
F0.005314929867075961
tp2393
F886.9481618217753
F1470682727.865
tp2394
a((F0.07907406928979838
F0.005875414669823146
tp2395
F887.0627626937691
F1470682727.881
tp2396
a((F0.07892812932515882
F0.005708612111943438
tp2397
F890.9727576068035
F1470682727.897
tp2398
a((F0.07913230747530012
F0.0057755154251431075
tp2399
F888.6925098843475
F1470682727.913
tp2400
a((F0.07963521042629315
F0.005953399223429898
tp2401
F888.6232078113742
F1470682727.93
tp2402
a((F0.0787247137807716
F0.005990046906178491
tp2403
F895.1906553437386
F1470682727.945
tp2404
a((F0.07918812177947158
F0.0057538965969375355
tp2405
F889.395268465865
F1470682727.961
tp2406
a((F0.0782767338758503
F0.0056320514390701465
tp2407
F895.556205982631
F1470682727.977
tp2408
a((F0.07735093584112328
F0.0057547664314442125
tp2409
F908.0461691743142
F1470682727.993
tp2410
a((F0.07698174672402511
F0.00574524414304085
tp2411
F907.4850294376832
F1470682728.009
tp2412
a((F0.07744668059696887
F0.006151200277815649
tp2413
F903.6770373060864
F1470682728.026
tp2414
a((F0.07695562692702126
F0.0064182403786466795
tp2415
F909.3848818499976
F1470682728.042
tp2416
a((F0.07735407522334704
F0.00649307653042467
tp2417
F905.9585109320855
F1470682728.058
tp2418
a((F0.07674983376930113
F0.006991119582220261
tp2419
F904.8032587498923
F1470682728.073
tp2420
a((F0.07664873429270525
F0.007531605022369712
tp2421
F908.6261972007633
F1470682728.09
tp2422
a((F0.0776285383174592
F0.007518400881455941
tp2423
F898.9879079833322
F1470682728.106
tp2424
a((F0.0760675025412481
F0.007619473159770211
tp2425
F905.3699468505301
F1470682728.122
tp2426
a((F0.07680681395704876
F0.00813029691307309
tp2427
F901.5589586098758
F1470682728.138
tp2428
a((F0.07694160344126479
F0.00847145042092675
tp2429
F899.274609415038
F1470682728.153
tp2430
a((F0.07726331074744733
F0.00877631224679525
tp2431
F896.4986874402596
F1470682728.17
tp2432
a((F0.076258589073875
F0.008538124047118982
tp2433
F903.1509755217326
F1470682728.186
tp2434
a((F0.07676770264906592
F0.008698540963210242
tp2435
F894.7798569922668
F1470682728.201
tp2436
a((F0.07733492472439028
F0.008743667100871677
tp2437
F897.6028507012052
F1470682728.217
tp2438
a((F0.07748760449108862
F0.008793789101961087
tp2439
F898.347254021845
F1470682728.233
tp2440
a((F0.07686375886985254
F0.008698635901624074
tp2441
F899.8274944426822
F1470682728.249
tp2442
a((F0.07604269613428011
F0.008192383025339891
tp2443
F907.2113023502959
F1470682728.265
tp2444
a((F0.07717697249786568
F0.008626426255867113
tp2445
F901.4774449244326
F1470682728.281
tp2446
a((F0.07708651859793118
F0.00875862389025582
tp2447
F903.116464794454
F1470682728.298
tp2448
a((F0.07726461071901224
F0.008476176635949349
tp2449
F901.3111404251928
F1470682728.314
tp2450
a((F0.07751290232868197
F0.008525304189729408
tp2451
F895.2403229785704
F1470682728.329
tp2452
a((F0.07702101963806797
F0.008311932278129673
tp2453
F888.3574206384654
F1470682728.345
tp2454
a((F0.07694595545445124
F0.008301658128548328
tp2455
F886.173207733412
F1470682728.361
tp2456
a((F0.07658170701400945
F0.007822537249559735
tp2457
F885.1689585470169
F1470682728.377
tp2458
a((F0.07577951478720822
F0.007258911854463489
tp2459
F883.22814197247
F1470682728.393
tp2460
a((F0.07657458141425973
F0.00734178129545811
tp2461
F883.3482609662242
F1470682728.409
tp2462
a((F0.07707241029586064
F0.0073389942089683545
tp2463
F891.1992830201791
F1470682728.426
tp2464
a((F0.07675648133312625
F0.00735461327230643
tp2465
F894.7565590245965
F1470682728.442
tp2466
a((F0.07662152505920838
F0.007400862090771573
tp2467
F898.6471722338722
F1470682728.458
tp2468
a((F0.07728739770345029
F0.007255572714511294
tp2469
F900.2074726070994
F1470682728.473
tp2470
a((F0.0772130278261266
F0.00740205029184634
tp2471
F910.4257476578096
F1470682728.49
tp2472
a((F0.07720257029567837
F0.007193991639055103
tp2473
F910.7543581359952
F1470682728.506
tp2474
a((F0.07635553331326815
F0.007558219128561525
tp2475
F914.2280629920801
F1470682728.521
tp2476
a((F0.07706302493065567
F0.007606705728170788
tp2477
F912.7113730678616
F1470682728.538
tp2478
a((F0.07689411648999402
F0.0073728483632485905
tp2479
F914.6917523136021
F1470682728.554
tp2480
a((F0.07703108558048397
F0.007503628425167499
tp2481
F911.4147149847959
F1470682728.569
tp2482
a((F0.07684627999672845
F0.0074569859655407265
tp2483
F910.3020385447048
F1470682728.586
tp2484
a((F0.07732584293689508
F0.007446144696174289
tp2485
F907.3278411966326
F1470682728.601
tp2486
a((F0.078219618046625
F0.00782921064122685
tp2487
F893.3148758817008
F1470682728.617
tp2488
a((F0.07825875339717149
F0.0080006890104797
tp2489
F890.5813063321973
F1470682728.633
tp2490
a((F0.07815232546464904
F0.008174741395432578
tp2491
F888.7570859554969
F1470682728.649
tp2492
a((F0.077961577408566
F0.00825742971142884
tp2493
F896.2548141582149
F1470682728.665
tp2494
a((F0.07777896033980337
F0.009037784392489387
tp2495
F893.7702632157057
F1470682728.681
tp2496
a((F0.07782365417039434
F0.009461891184869828
tp2497
F902.194909371067
F1470682728.697
tp2498
a((F0.07734247635735517
F0.009877176462325745
tp2499
F909.2283917739674
F1470682728.713
tp2500
a((F0.07837799977604105
F0.010217904231531703
tp2501
F905.8214234309988
F1470682728.729
tp2502
a((F0.07854670674006317
F0.010626623953786848
tp2503
F908.030302922732
F1470682728.745
tp2504
a((F0.07738475409969489
F0.010686776968452733
tp2505
F909.831271083307
F1470682728.761
tp2506
a((F0.07779645510111272
F0.011196355037524308
tp2507
F905.6417609155135
F1470682728.777
tp2508
a((F0.07690518070250063
F0.011188496282572638
tp2509
F904.4649931974096
F1470682728.793
tp2510
a((F0.07765403257942925
F0.01154478510111446
tp2511
F892.9654918538272
F1470682728.809
tp2512
a((F0.07688668874570877
F0.011751023184243158
tp2513
F893.9604308787027
F1470682728.825
tp2514
a((F0.07688101320556653
F0.011918398489288228
tp2515
F885.9326401170247
F1470682728.842
tp2516
a((F0.07692213505542914
F0.012212826948959043
tp2517
F881.1455922979632
F1470682728.858
tp2518
a((F0.07658094712862056
F0.011915099522707933
tp2519
F881.4690317944878
F1470682728.874
tp2520
a((F0.07763783924656886
F0.012869794696940818
tp2521
F874.9917475771097
F1470682728.89
tp2522
a((F0.07777826224229405
F0.01289796891857721
tp2523
F876.1273082220418
F1470682728.906
tp2524
a((F0.0767868095965602
F0.012488926622384981
tp2525
F890.4711467314314
F1470682728.922
tp2526
a((F0.07625848058446476
F0.012305403356196032
tp2527
F898.2420570687729
F1470682728.938
tp2528
a((F0.07513416856004043
F0.011576997316917262
tp2529
F914.5239623374862
F1470682728.953
tp2530
a((F0.07498747994453543
F0.011358551192777866
tp2531
F912.0908669248773
F1470682728.97
tp2532
a((F0.07455110571201917
F0.010895232199673735
tp2533
F910.5765362554604
F1470682728.986
tp2534
a((F0.07345076974211445
F0.010514903246149522
tp2535
F905.0166151147556
F1470682729.002
tp2536
a((F0.07204479468271885
F0.009891065911045384
tp2537
F916.0784725398389
F1470682729.017
tp2538
a((F0.07159789129243528
F0.009886039516534143
tp2539
F913.1134482520963
F1470682729.034
tp2540
a((F0.0699364495132941
F0.009579751357888312
tp2541
F917.3682986283739
F1470682729.05
tp2542
a((F0.069815427216663
F0.009825562046926679
tp2543
F917.0115917477553
F1470682729.066
tp2544
a((F0.06743416532332261
F0.009456697505956084
tp2545
F925.6660882281569
F1470682729.082
tp2546
a((F0.06720914920105701
F0.009667063964967531
tp2547
F916.0075325308449
F1470682729.097
tp2548
a((F0.06642621120675866
F0.009386538909924792
tp2549
F907.5099306434918
F1470682729.113
tp2550
a((F0.0647449116113857
F0.009524580893931496
tp2551
F902.8050669393499
F1470682729.129
tp2552
a((F0.0632041740514163
F0.008807929193969753
tp2553
F899.9335511460935
F1470682729.145
tp2554
a((F0.06185840985988136
F0.008464809020035042
tp2555
F894.4028939081823
F1470682729.161
tp2556
a((F0.05968215944080631
F0.008168493021038165
tp2557
F900.7051632378603
F1470682729.178
tp2558
a((F0.0589579054735683
F0.007955195175960618
tp2559
F887.5608600704516
F1470682729.194
tp2560
a((F0.05818241150863305
F0.007404345769659705
tp2561
F888.0136378479181
F1470682729.209
tp2562
a((F0.055206998733637005
F0.0072523718586778195
tp2563
F890.0736429409507
F1470682729.226
tp2564
a((F0.05484836389065233
F0.00733792443614502
tp2565
F890.0735292650911
F1470682729.241
tp2566
a((F0.05238546175734664
F0.006750711316917724
tp2567
F900.9417902385844
F1470682729.257
tp2568
a((F0.05124733024818217
F0.006382021558916355
tp2569
F903.1147712177874
F1470682729.274
tp2570
a((F0.04908973135323486
F0.005835597885617228
tp2571
F902.0551593832416
F1470682729.289
tp2572
a((F0.046681058626937215
F0.005103006891297127
tp2573
F902.6263433773688
F1470682729.305
tp2574
a((F0.044452317003279285
F0.004528047387058458
tp2575
F898.3184827933037
F1470682729.322
tp2576
a((F0.04204619158437785
F0.003638854002383934
tp2577
F897.7676971476712
F1470682729.338
tp2578
a((F0.03928965980500188
F0.003076128040702598
tp2579
F895.3752245469511
F1470682729.353
tp2580
a((F0.03602166590937887
F0.0029860420297406413
tp2581
F897.8847003233764
F1470682729.369
tp2582
a((F0.03314914495813454
F0.0030096888030806557
tp2583
F904.5089242506433
F1470682729.385
tp2584
a((F0.029210516580970767
F0.0022514434250606665
tp2585
F914.316766560842
F1470682729.402
tp2586
a((F0.02622389674184304
F0.0027539217414448173
tp2587
F914.4848997968147
F1470682729.417
tp2588
a((F0.02218933490198374
F0.0031909341165379333
tp2589
F913.2216214991072
F1470682729.434
tp2590
a((F0.018066100142494584
F0.004781580032746081
tp2591
F922.6187656303755
F1470682729.45
tp2592
a((F0.014915371326938844
F0.006164017511935567
tp2593
F922.082964265089
F1470682729.465
tp2594
a((F0.011735361422291646
F0.007660813418205358
tp2595
F915.1898254216569
F1470682729.481
tp2596
a((F0.008672656199022851
F0.00902444419324116
tp2597
F902.2221187086539
F1470682729.497
tp2598
a((F0.005121235065958253
F0.00958024636129875
tp2599
F908.0278835818513
F1470682729.513
tp2600
a((F0.0028260747993814994
F0.00995322388039753
tp2601
F905.7105368001999
F1470682729.529
tp2602
a((F0.0010958395547593935
F0.010222263586483385
tp2603
F900.459218253517
F1470682729.546
tp2604
a((F-0.0005850170266694359
F0.009962324196223239
tp2605
F897.1953765340138
F1470682729.562
tp2606
a((F-0.0011378861986834007
F0.009418393103771714
tp2607
F904.5541963715596
F1470682729.577
tp2608
a((F-0.002534210912217987
F0.009179979258166307
tp2609
F893.213165247008
F1470682729.594
tp2610
a((F-0.003438616602225727
F0.00873954687157711
tp2611
F898.577529187242
F1470682729.61
tp2612
a((F-0.003998762599699821
F0.008582407864206356
tp2613
F904.9254636991932
F1470682729.626
tp2614
a((F-0.004417941735325799
F0.008588899143415676
tp2615
F909.1480076113611
F1470682729.642
tp2616
a((F-0.004011462536736068
F0.008571368918524962
tp2617
F911.6195567734646
F1470682729.658
tp2618
a((F-0.0032624650591521337
F0.008202968246012046
tp2619
F913.711447351186
F1470682729.674
tp2620
a((F-0.0021810803344216533
F0.007994973953499318
tp2621
F902.6168593762719
F1470682729.69
tp2622
a((F-0.001323413250734502
F0.007879650720511623
tp2623
F902.1273011653368
F1470682729.706
tp2624
a((F-0.0009804840271652583
F0.00788314178968646
tp2625
F898.8771152677467
F1470682729.722
tp2626
a((F-0.0013529940117729615
F0.00765689734768766
tp2627
F887.4311034916238
F1470682729.737
tp2628
a((F-0.003280069174088348
F0.007237177332982002
tp2629
F893.7111741543562
F1470682729.754
tp2630
a((F-0.0047309853259682455
F0.007427134186934767
tp2631
F886.8353734805036
F1470682729.77
tp2632
a((F-0.005525282798491152
F0.007274854328840661
tp2633
F889.1110377681127
F1470682729.785
tp2634
a((F-0.00703912505236131
F0.006467504936917509
tp2635
F889.9910062317574
F1470682729.801
tp2636
a((F-0.007790775910367799
F0.006268339511745667
tp2637
F890.605148787856
F1470682729.817
tp2638
a((F-0.010140358368254625
F0.006111639250386769
tp2639
F893.9212336036067
F1470682729.834
tp2640
a((F-0.012089404793129555
F0.005624581526063771
tp2641
F903.6989365535526
F1470682729.849
tp2642
a((F-0.01328564343787133
F0.005364735587314006
tp2643
F901.4394573453453
F1470682729.865
tp2644
a((F-0.015320115564286097
F0.004880813597113575
tp2645
F908.6414092250667
F1470682729.881
tp2646
a((F-0.017501223632020266
F0.004568054743624615
tp2647
F909.0511899824502
F1470682729.897
tp2648
a((F-0.018460692534459627
F0.004502722546935618
tp2649
F906.4918424730067
F1470682729.914
tp2650
a((F-0.0206222253634129
F0.00442875719610257
tp2651
F904.919978317728
F1470682729.929
tp2652
a((F-0.021747644480955314
F0.004047654206540667
tp2653
F908.880832246145
F1470682729.946
tp2654
a((F-0.023790272409509913
F0.0041786663766140405
tp2655
F909.6579048083288
F1470682729.961
tp2656
a((F-0.024381980133176804
F0.003738161134154781
tp2657
F913.0282051166156
F1470682729.978
tp2658
a((F-0.02508221214638088
F0.0025494713576543018
tp2659
F918.2461056746967
F1470682729.994
tp2660
a((F-0.02560504527456491
F0.0022465318428763906
tp2661
F913.0363826071368
F1470682730.01
tp2662
a((F-0.025763857375188874
F0.0013323094255882119
tp2663
F908.2576392323739
F1470682730.026
tp2664
a((F-0.025855538257380836
F0.001026946920050702
tp2665
F906.4252655963011
F1470682730.042
tp2666
a((F-0.02596217412805893
F0.0003869465050252094
tp2667
F906.0511947384244
F1470682730.057
tp2668
a((F-0.02611615822386091
F0.00010576873498966175
tp2669
F908.4594723564962
F1470682730.074
tp2670
a((F-0.028133731558479598
F0.00010459202951134385
tp2671
F908.0256742978814
F1470682730.09
tp2672
a((F-0.028252600362744632
F0.0006277833038696733
tp2673
F903.2950661039582
F1470682730.106
tp2674
a((F-0.028544762843484492
F0.0007058145899519
tp2675
F903.863539919409
F1470682730.122
tp2676
a((F-0.02869134092729532
F0.000966768996405446
tp2677
F901.438878938017
F1470682730.138
tp2678
a((F-0.029692365124037154
F0.0009719113064853744
tp2679
F908.7584085057155
F1470682730.154
tp2680
a((F-0.029968904342525284
F0.0009734666952920712
tp2681
F914.0729659779953
F1470682730.17
tp2682
a((F-0.030902119576565006
F0.0014517005855559746
tp2683
F910.7356190381225
F1470682730.186
tp2684
a((F-0.032167938241278074
F0.0017828406020903114
tp2685
F902.2340916667636
F1470682730.202
tp2686
a((F-0.03297059922139552
F0.002496088870607016
tp2687
F913.3319484531197
F1470682730.217
tp2688
a((F-0.03459901931051963
F0.0034225671783044754
tp2689
F901.959403111227
F1470682730.234
tp2690
a((F-0.03562863732253705
F0.004013874490684552
tp2691
F904.4922634693617
F1470682730.249
tp2692
a((F-0.03696018121880755
F0.004152041141468828
tp2693
F903.5770964887085
F1470682730.266
tp2694
a((F-0.036987730605971644
F0.003924355553844669
tp2695
F911.2789305266856
F1470682730.282
tp2696
a((F-0.037307788165067406
F0.0038395010660532114
tp2697
F914.3708278078967
F1470682730.297
tp2698
a((F-0.0378754314609103
F0.004271180001900965
tp2699
F915.1367814668196
F1470682730.313
tp2700
a((F-0.038901193425687486
F0.004493593798946434
tp2701
F911.3423169762066
F1470682730.33
tp2702
a((F-0.040005477573775136
F0.004912219638999972
tp2703
F902.7577723025496
F1470682730.345
tp2704
a((F-0.040744911458649266
F0.00523097699551514
tp2705
F905.4692726455874
F1470682730.361
tp2706
a((F-0.04067413007918948
F0.005603194293395577
tp2707
F909.8660002869893
F1470682730.377
tp2708
a((F-0.04198974913003013
F0.005718120343500659
tp2709
F902.2875988784351
F1470682730.393
tp2710
a((F-0.04259203051564047
F0.005633873807662101
tp2711
F901.7308758594951
F1470682730.41
tp2712
a((F-0.04249188735589826
F0.005123513854728536
tp2713
F904.7370540535546
F1470682730.426
tp2714
a((F-0.04264697357176781
F0.004942582332181787
tp2715
F909.9516144430625
F1470682730.442
tp2716
a((F-0.043296084594608084
F0.0046381619655285235
tp2717
F915.1763099643988
F1470682730.457
tp2718
a((F-0.04309242297967707
F0.0048422654062242
tp2719
F909.2939801247421
F1470682730.473
tp2720
a((F-0.04396696295671928
F0.004552922909792022
tp2721
F908.1606613248977
F1470682730.49
tp2722
a((F-0.043453086693758323
F0.00464026755228089
tp2723
F903.984328750406
F1470682730.505
tp2724
a((F-0.04369797232270571
F0.00502671639204839
tp2725
F904.9613685917923
F1470682730.522
tp2726
a((F-0.044260422700772774
F0.0048927660678044224
tp2727
F905.5818612797984
F1470682730.537
tp2728
a((F-0.044681412000927054
F0.0048838661077143615
tp2729
F903.406864103558
F1470682730.554
tp2730
a((F-0.04456806052646805
F0.00544847406587768
tp2731
F899.6795801556493
F1470682730.57
tp2732
a((F-0.04496448073893432
F0.006185313962431936
tp2733
F901.8343679781183
F1470682730.586
tp2734
a((F-0.046463968361050996
F0.0069434353246304314
tp2735
F895.9671868060144
F1470682730.601
tp2736
a((F-0.04689105334179868
F0.0069466703311573145
tp2737
F890.4984682972496
F1470682730.617
tp2738
a((F-0.04705044344977154
F0.0067975778374487605
tp2739
F896.3875653646172
F1470682730.634
tp2740
a((F-0.046550722998187286
F0.007297439748297894
tp2741
F903.1888013588695
F1470682730.649
tp2742
a((F-0.04779947525239091
F0.008003996465518467
tp2743
F902.4093371987709
F1470682730.665
tp2744
a((F-0.05005845091445534
F0.008991241255920959
tp2745
F896.8915329631996
F1470682730.681
tp2746
a((F-0.05228089186320936
F0.009380180995722317
tp2747
F887.5249887107874
F1470682730.697
tp2748
a((F-0.05360835450262109
F0.009515282551559541
tp2749
F880.0921991300485
F1470682730.713
tp2750
a((F-0.054094575822302794
F0.00936029818184603
tp2751
F883.8700287014626
F1470682730.729
tp2752
a((F-0.05355272615783086
F0.009359573010400114
tp2753
F887.5757305418565
F1470682730.745
tp2754
a((F-0.05393717240874038
F0.009037153721154404
tp2755
F889.0590445426072
F1470682730.761
tp2756
a((F-0.05382379195954741
F0.008848722372788482
tp2757
F900.4577211534054
F1470682730.778
tp2758
a((F-0.05492096709412667
F0.00908464674346236
tp2759
F902.2409450722031
F1470682730.794
tp2760
a((F-0.05585760835084375
F0.009160716526242578
tp2761
F904.3620622960419
F1470682730.809
tp2762
a((F-0.05581842121326986
F0.009448587544391618
tp2763
F903.1021018137028
F1470682730.825
tp2764
a((F-0.056934634482286375
F0.010083950500749556
tp2765
F903.0586259616593
F1470682730.842
tp2766
a((F-0.05751501647689409
F0.010019149494084945
tp2767
F910.1743285090041
F1470682730.857
tp2768
a((F-0.0583110312414916
F0.009968908774856263
tp2769
F907.4620365953992
F1470682730.873
tp2770
a((F-0.05868611388338091
F0.009753376692381046
tp2771
F904.817947805002
F1470682730.89
tp2772
a((F-0.0586323287037651
F0.009417550836855079
tp2773
F900.1192751563216
F1470682730.906
tp2774
a((F-0.05852242856129937
F0.009283486997983146
tp2775
F902.2232021598971
F1470682730.921
tp2776
a((F-0.05828109342343889
F0.008357004683458307
tp2777
F907.0334542146358
F1470682730.938
tp2778
a((F-0.058112382871885755
F0.00831525461065363
tp2779
F904.5996562523596
F1470682730.953
tp2780
a((F-0.05808626679596223
F0.008151877951752635
tp2781
F901.092415570089
F1470682730.97
tp2782
a((F-0.05736429976760137
F0.007542035244494715
tp2783
F905.979766446012
F1470682730.985
tp2784
a((F-0.05782770347099085
F0.006887224716401154
tp2785
F897.3801025452892
F1470682731.001
tp2786
a((F-0.057319290817794064
F0.006389035192420146
tp2787
F890.0312418012749
F1470682731.017
tp2788
a((F-0.05772606086030873
F0.005640039197321157
tp2789
F894.0702597998628
F1470682731.033
tp2790
a((F-0.057731766928834284
F0.005195068239065848
tp2791
F885.4095589079666
F1470682731.049
tp2792
a((F-0.05749947919804547
F0.004538746713517537
tp2793
F893.4114070931508
F1470682731.065
tp2794
a((F-0.05846828584313865
F0.0035520109544149815
tp2795
F890.6044332963747
F1470682731.081
tp2796
a((F-0.058328199125045777
F0.0025067358289370513
tp2797
F891.667225095738
F1470682731.097
tp2798
a((F-0.05839820264707097
F0.001541622783639448
tp2799
F889.5474092673073
F1470682731.113
tp2800
a((F-0.05801591044135477
F5.0736554663230225e-05
tp2801
F902.5539878797588
F1470682731.129
tp2802
a((F-0.0583186241022956
F-0.001066723183619096
tp2803
F900.9294795195183
F1470682731.145
tp2804
a((F-0.05899427387043031
F-0.001952665700010394
tp2805
F898.3842007174202
F1470682731.161
tp2806
a((F-0.05902698686036869
F-0.002925024342105013
tp2807
F904.1402667821624
F1470682731.178
tp2808
a((F-0.05928994195790392
F-0.003201052674771636
tp2809
F902.7976297240667
F1470682731.194
tp2810
a((F-0.05945813714789302
F-0.004418687142558809
tp2811
F901.270319772256
F1470682731.209
tp2812
a((F-0.06000805842344736
F-0.005793948144314314
tp2813
F895.1242086097003
F1470682731.226
tp2814
a((F-0.05999218202581787
F-0.006983191787295239
tp2815
F894.4690545617134
F1470682731.241
tp2816
a((F-0.060801382779668414
F-0.008591082443856677
tp2817
F891.9670229828664
F1470682731.258
tp2818
a((F-0.06043199813029619
F-0.009751402516097208
tp2819
F892.1930286751742
F1470682731.273
tp2820
a((F-0.06060020884664053
F-0.01071756133103854
tp2821
F889.6564024347134
F1470682731.29
tp2822
a((F-0.060777575753364795
F-0.01070808457683125
tp2823
F893.5509622245802
F1470682731.306
tp2824
a((F-0.06128692914525204
F-0.010513631931051221
tp2825
F891.5841791704186
F1470682731.321
tp2826
a((F-0.06223235335121854
F-0.010251592835016931
tp2827
F885.3394637993849
F1470682731.338
tp2828
a((F-0.06184360693372798
F-0.009940475119574544
tp2829
F881.2032845234851
F1470682731.353
tp2830
a((F-0.062484699179848606
F-0.009213367549956232
tp2831
F885.9695805672262
F1470682731.369
tp2832
a((F-0.061696639820021375
F-0.008805972159508743
tp2833
F896.0087490043873
F1470682731.386
tp2834
a((F-0.06183404562213685
F-0.008248949292547395
tp2835
F895.7641683871486
F1470682731.402
tp2836
a((F-0.06040259901372173
F-0.008147958378878727
tp2837
F907.2516285193504
F1470682731.417
tp2838
a((F-0.05972574747180871
F-0.007593578052267205
tp2839
F914.7380269306951
F1470682731.433
tp2840
a((F-0.05836080936379819
F-0.006617960013909692
tp2841
F914.079266804462
F1470682731.449
tp2842
a((F-0.056071874220170646
F-0.006258465756806355
tp2843
F917.9406589049856
F1470682731.466
tp2844
a((F-0.05375160423358733
F-0.005366474546162111
tp2845
F901.58400830585
F1470682731.481
tp2846
a((F-0.05287815977387559
F-0.0039030917659622537
tp2847
F890.5991089924655
F1470682731.497
tp2848
a((F-0.05165196785027406
F-0.0020508617736382222
tp2849
F892.8087418220543
F1470682731.513
tp2850
a((F-0.05075158633322268
F-0.0006143375580903829
tp2851
F902.6527853615357
F1470682731.53
tp2852
a((F-0.04853677027769736
F0.00195359534290635
tp2853
F909.0407037240236
F1470682731.545
tp2854
a((F-0.04553259488685613
F0.00456289641052364
tp2855
F919.3726386975306
F1470682731.561
tp2856
a((F-0.044404927348132214
F0.00645123793403598
tp2857
F926.8313067399401
F1470682731.577
tp2858
a((F-0.0429300455617797
F0.009226733290593083
tp2859
F926.3705202732041
F1470682731.593
tp2860
a((F-0.041398672335503865
F0.011448298744614989
tp2861
F925.6024898595224
F1470682731.61
tp2862
a((F-0.04054224877384445
F0.013104258701844016
tp2863
F921.7777702551687
F1470682731.626
tp2864
a((F-0.03833817089634787
F0.013949671786501769
tp2865
F932.5628765985003
F1470682731.642
tp2866
a((F-0.03672491639511363
F0.014547988316699916
tp2867
F932.5299400446519
F1470682731.658
tp2868
a((F-0.03486464866155176
F0.01484448750064496
tp2869
F949.8106433762007
F1470682731.674
tp2870
a((F-0.03301632860482631
F0.015776280033615524
tp2871
F940.3611299274974
F1470682731.69
tp2872
a((F-0.031755068739053344
F0.016545963750794417
tp2873
F934.9682034826226
F1470682731.706
tp2874
a((F-0.030449305728708964
F0.0169683681028435
tp2875
F931.9107050064202
F1470682731.721
tp2876
a((F-0.02968449836042061
F0.017550844567242284
tp2877
F908.4955194902614
F1470682731.737
tp2878
a((F-0.02913283103602491
F0.017856425873985737
tp2879
F898.3915172366412
F1470682731.753
tp2880
a((F-0.02957039048385723
F0.018089943449707827
tp2881
F893.747290339799
F1470682731.77
tp2882
a((F-0.029451908541677455
F0.018127397117249734
tp2883
F887.8099865589811
F1470682731.786
tp2884
a((F-0.029073291829246384
F0.017969224936556356
tp2885
F887.0070722191257
F1470682731.802
tp2886
a((F-0.027806933199125417
F0.017557953831571084
tp2887
F889.8429438352767
F1470682731.817
tp2888
a((F-0.02714623018987895
F0.017044035914614068
tp2889
F896.3388210410301
F1470682731.834
tp2890
a((F-0.025732008874956313
F0.01655184492859188
tp2891
F893.6007441224264
F1470682731.849
tp2892
a((F-0.024675335976182395
F0.01567337895248901
tp2893
F898.7489528463946
F1470682731.865
tp2894
a((F-0.023797095667071978
F0.014462774118845056
tp2895
F904.5877118723851
F1470682731.881
tp2896
a((F-0.022507419127730705
F0.013490336329701046
tp2897
F905.4056192336857
F1470682731.897
tp2898
a((F-0.020804803869153343
F0.012143143040218641
tp2899
F908.2909743037352
F1470682731.913
tp2900
a((F-0.019343122310686037
F0.011128992118647095
tp2901
F906.3876904950794
F1470682731.929
tp2902
a((F-0.017146309955190744
F0.00925112646705738
tp2903
F906.5577275256205
F1470682731.946
tp2904
a((F-0.015486838857615074
F0.0070091294381290845
tp2905
F905.1443383442274
F1470682731.962
tp2906
a((F-0.012791226346986812
F0.004203331134338022
tp2907
F907.8741873084668
F1470682731.978
tp2908
a((F-0.010977122520660527
F0.0015621004886580544
tp2909
F906.9531934205413
F1470682731.994
tp2910
a((F-0.009230468417169126
F-0.0013090825441765762
tp2911
F900.9396265588584
F1470682732.01
tp2912
a((F-0.007735677157571777
F-0.004814094970474176
tp2913
F899.9949524098316
F1470682732.026
tp2914
a((F-0.00650752093715588
F-0.007794081326730591
tp2915
F903.1030584674145
F1470682732.042
tp2916
a((F-0.004723075476263809
F-0.010618468362359506
tp2917
F905.4829609643083
F1470682732.057
tp2918
a((F-0.00375343057844358
F-0.01317574998117171
tp2919
F909.5711700703775
F1470682732.073
tp2920
a((F-0.0032303374716731795
F-0.01586656732379305
tp2921
F906.4884587253295
F1470682732.09
tp2922
a((F-0.0020201443214557385
F-0.018396289809987216
tp2923
F921.4004649967607
F1470682732.105
tp2924
a((F-0.001482835646053465
F-0.02127775684534426
tp2925
F915.5095869989023
F1470682732.121
tp2926
a((F-0.0006059385781106314
F-0.02260086366493385
tp2927
F913.2329313735833
F1470682732.138
tp2928
a((F0.00018211533140840986
F-0.02413757488847637
tp2929
F920.7280111824983
F1470682732.154
tp2930
a((F-3.4378785791382004e-05
F-0.02628268375517367
tp2931
F920.8200182633167
F1470682732.169
tp2932
a((F0.0010368956778467999
F-0.027748075097281517
tp2933
F917.5080482747762
F1470682732.186
tp2934
a((F0.0013010560611673597
F-0.02923315440525161
tp2935
F921.0695982302929
F1470682732.201
tp2936
a((F0.00015908653768229925
F-0.030862214097596742
tp2937
F913.2955929154151
F1470682732.217
tp2938
a((F0.0005395648993967124
F-0.03178713874430686
tp2939
F920.3300418243819
F1470682732.233
tp2940
a((F0.0002950263244480254
F-0.03301884113184168
tp2941
F926.8967873822338
F1470682732.25
tp2942
a((F8.518457145871999e-05
F-0.0343966001799884
tp2943
F928.9450645277267
F1470682732.266
tp2944
a((F0.0002321730600136296
F-0.03512865908544382
tp2945
F912.1008532990943
F1470682732.281
tp2946
a((F-0.00013321971871983144
F-0.035327490125040176
tp2947
F904.3476563604125
F1470682732.298
tp2948
a((F-0.0007566450583694294
F-0.03558620911576673
tp2949
F902.9444717413173
F1470682732.313
tp2950
a((F-0.0006361370432406568
F-0.03577910914013012
tp2951
F891.6899954454412
F1470682732.329
tp2952
a((F-0.00026606847913812387
F-0.03534926952581999
tp2953
F889.834844088
F1470682732.346
tp2954
a((F-0.0007450383530978374
F-0.03514642691865784
tp2955
F868.7703439229198
F1470682732.362
tp2956
a((F-0.00046534953287107473
F-0.034552078518915355
tp2957
F855.9457589672626
F1470682732.378
tp2958
a((F-0.0012052920712333542
F-0.03347372754685921
tp2959
F853.2235903919883
F1470682732.394
tp2960
a((F-0.0014133044907306779
F-0.03236905313530165
tp2961
F853.711697101251
F1470682732.41
tp2962
a((F-0.002248446142810722
F-0.03162517932857378
tp2963
F847.2864044217641
F1470682732.426
tp2964
a((F-0.002633314060805439
F-0.030000177144537572
tp2965
F842.7602808480771
F1470682732.441
tp2966
a((F-0.0018119765596467919
F-0.028859407839018823
tp2967
F845.6386705549866
F1470682732.458
tp2968
a((F-0.0019451173912958615
F-0.02735590369037559
tp2969
F874.6323256783099
F1470682732.474
tp2970
a((F-0.002479835518207253
F-0.026177039922279852
tp2971
F903.8249740584139
F1470682732.49
tp2972
a((F-0.0032281915478827605
F-0.025147449579676358
tp2973
F928.84743574678
F1470682732.505
tp2974
a((F-0.0026573955023993794
F-0.024287889003850583
tp2975
F944.9209669407758
F1470682732.521
tp2976
a((F-0.0032843748033901925
F-0.023532993287107784
tp2977
F955.6825829924908
F1470682732.538
tp2978
a((F-0.00346145645659909
F-0.02281461562263925
tp2979
F952.6327131447124
F1470682732.552
tp2980
a((F-0.0032237089396236684
F-0.02296387155585229
tp2981
F943.9944459146692
F1470682732.569
tp2982
a((F-0.002172760289307137
F-0.023070699076202947
tp2983
F933.9424161312668
F1470682732.585
tp2984
a((F-0.002094970463897331
F-0.02333813327585673
tp2985
F942.2907482714936
F1470682732.601
tp2986
a((F-0.002146401301093848
F-0.023998064884098128
tp2987
F953.6652396817179
F1470682732.617
tp2988
a((F-0.0014906363972571383
F-0.02512387013931301
tp2989
F959.3936393168685
F1470682732.633
tp2990
a((F-0.0016998044947914347
F-0.027098348821708237
tp2991
F966.4461357120771
F1470682732.649
tp2992
a((F-0.00146532216836918
F-0.0290246792181266
tp2993
F979.655778160652
F1470682732.665
tp2994
a((F-0.0013811412996192682
F-0.03135918443477533
tp2995
F984.5234472957676
F1470682732.681
tp2996
a((F-0.0007899321211987481
F-0.033045260088291076
tp2997
F973.5010560033487
F1470682732.697
tp2998
a((F-0.00025352887350481865
F-0.03439625954641842
tp2999
F949.2905838496442
F1470682732.713
tp3000
a((F0.0008806398848709809
F-0.03551801876015741
tp3001
F932.2756258729286
F1470682732.729
tp3002
a((F0.001506504892393828
F-0.0365683745320123
tp3003
F922.6613524567331
F1470682732.745
tp3004
a((F0.001968772373458375
F-0.037829334546132555
tp3005
F917.7733982992971
F1470682732.761
tp3006
a((F0.0018798030370976988
F-0.03909455859366985
tp3007
F906.2790988304142
F1470682732.777
tp3008
a((F0.00045830941286825234
F-0.0392992783094161
tp3009
F899.6933225425994
F1470682732.793
tp3010
a((F0.00038673977731086545
F-0.03999691711784033
tp3011
F884.8478434448841
F1470682732.809
tp3012
a((F0.0010516966143665942
F-0.04041624840475651
tp3013
F874.6736648904612
F1470682732.826
tp3014
a((F0.0007921873830728616
F-0.04100412102735275
tp3015
F877.292002075601
F1470682732.842
tp3016
a((F0.0010620492051037337
F-0.04097441655024921
tp3017
F868.8519586301074
F1470682732.858
tp3018
a((F0.0015870557512711711
F-0.040943480934395905
tp3019
F865.9049641635646
F1470682732.873
tp3020
a((F0.0017369511659706452
F-0.0408688960434607
tp3021
F864.5261103656142
F1470682732.89
tp3022
a((F0.0015321079815620972
F-0.04099551984821695
tp3023
F875.7716652568811
F1470682732.907
tp3024
a((F0.00195390380861478
F-0.041504935174874955
tp3025
F898.3007290358437
F1470682732.923
tp3026
a((F0.002237558392928039
F-0.04201782026064547
tp3027
F906.603256736864
F1470682732.939
tp3028
a((F0.0023913996158574347
F-0.042641601084279925
tp3029
F908.0508148636402
F1470682732.955
tp3030
a((F0.0019848724753043262
F-0.04333271331624671
tp3031
F907.8176450170845
F1470682732.97
tp3032
a((F0.001983012629890542
F-0.04365658252793076
tp3033
F911.8667881256464
F1470682732.986
tp3034
a((F0.0017425383334419551
F-0.043800972803832994
tp3035
F920.6462697089668
F1470682733.002
tp3036
a((F0.001797240151172408
F-0.04435555648925027
tp3037
F914.4618695362863
F1470682733.018
tp3038
a((F0.0018432709038438487
F-0.044854534400196815
tp3039
F908.1092898533316
F1470682733.035
tp3040
a((F0.0012779650407532723
F-0.04578727170200684
tp3041
F896.1354937438196
F1470682733.05
tp3042
a((F0.0009615624703204661
F-0.04660103152833594
tp3043
F885.0014554208611
F1470682733.066
tp3044
a((F0.0012049464210143125
F-0.046753725057825414
tp3045
F885.606034103818
F1470682733.082
tp3046
a((F0.0011165832391079782
F-0.04774202203406443
tp3047
F876.3887847288053
F1470682733.098
tp3048
a((F0.0006402049832817688
F-0.04783529092420623
tp3049
F882.9993079318172
F1470682733.114
tp3050
a((F0.0015071987453824413
F-0.04877189530352123
tp3051
F882.0874545843551
F1470682733.13
tp3052
a((F0.0008794645671947213
F-0.04874625835026844
tp3053
F887.8242465585986
F1470682733.146
tp3054
a((F0.0006938188611635711
F-0.04960022046584919
tp3055
F887.9526600746392
F1470682733.162
tp3056
a((F0.00012350880543120563
F-0.05005553052809988
tp3057
F897.6590385639388
F1470682733.179
tp3058
a((F-0.00031031712208106477
F-0.04987894893247435
tp3059
F894.7590874452195
F1470682733.195
tp3060
a((F-0.00014213152882430638
F-0.05056418645902588
tp3061
F887.8870707670583
F1470682733.211
tp3062
a((F7.120057213110718e-05
F-0.050998441518887896
tp3063
F883.3142499838956
F1470682733.227
tp3064
a((F0.0005319783725019391
F-0.05189932851358656
tp3065
F885.3025378501958
F1470682733.243
tp3066
a((F0.00042491077959364915
F-0.052511956005073655
tp3067
F874.8307727784826
F1470682733.258
tp3068
a((F5.174827857010064e-05
F-0.05280496133715789
tp3069
F872.1870923890284
F1470682733.274
tp3070
a((F-0.0005051261118829189
F-0.053117470107022814
tp3071
F873.6593415320438
F1470682733.29
tp3072
a((F-0.0007664341180200591
F-0.053699388567286156
tp3073
F883.3335788717585
F1470682733.306
tp3074
a((F-0.00030453357832857785
F-0.05453238992310945
tp3075
F879.316866226058
F1470682733.322
tp3076
a((F-0.0008144144172996822
F-0.05502018004957624
tp3077
F878.3467731591334
F1470682733.338
tp3078
a((F-0.0005064497413156661
F-0.055703036861581845
tp3079
F880.741178374788
F1470682733.355
tp3080
a((F-0.0004904612036558917
F-0.055282175279138875
tp3081
F891.1420956645493
F1470682733.37
tp3082
a((F-0.0011334571470580641
F-0.056133528894113334
tp3083
F884.9992109959114
F1470682733.387
tp3084
a((F-0.0012961558879242402
F-0.05690723256041371
tp3085
F869.0992630573769
F1470682733.404
tp3086
a((F-0.0017401747580544787
F-0.05690796770428776
tp3087
F872.5517416908278
F1470682733.419
tp3088
a((F-0.0015546386186498745
F-0.057281093661192065
tp3089
F871.5242328205989
F1470682733.436
tp3090
a((F-0.002202242058107124
F-0.057347852376953334
tp3091
F879.0319913496251
F1470682733.451
tp3092
a((F-0.0022124544155445497
F-0.05725925286426882
tp3093
F885.5856409954024
F1470682733.467
tp3094
a((F-0.003402689834608664
F-0.05714313191243736
tp3095
F887.0248706761903
F1470682733.483
tp3096
a((F-0.0033847815997674977
F-0.05707109527286554
tp3097
F890.0498419256013
F1470682733.499
tp3098
a((F-0.004083330034426628
F-0.05712931407237088
tp3099
F886.4190267271913
F1470682733.515
tp3100
a((F-0.003942717267614164
F-0.05707304788893414
tp3101
F895.1246756685084
F1470682733.531
tp3102
a((F-0.004589612477926312
F-0.057495745386544894
tp3103
F894.1452016081671
F1470682733.547
tp3104
a((F-0.00502531641860166
F-0.057656749908886105
tp3105
F892.6726206588714
F1470682733.563
tp3106
a((F-0.004851166856815622
F-0.05767960365488328
tp3107
F881.6039187606217
F1470682733.579
tp3108
a((F-0.0057273020127946465
F-0.05795768783638664
tp3109
F872.46449518602
F1470682733.595
tp3110
a((F-0.006413381263654669
F-0.05804297296570604
tp3111
F874.8503911318629
F1470682733.611
tp3112
a((F-0.006133273081762152
F-0.05786424769752628
tp3113
F873.3137512002246
F1470682733.627
tp3114
a((F-0.006198213760391953
F-0.05757345654568938
tp3115
F876.508684166269
F1470682733.643
tp3116
a((F-0.005999818078758298
F-0.05723955765415247
tp3117
F885.3904264248263
F1470682733.659
tp3118
a((F-0.006826730199346608
F-0.05593360314315325
tp3119
F896.7890566332868
F1470682733.675
tp3120
a((F-0.007248485932218978
F-0.05575344218187025
tp3121
F887.941423515503
F1470682733.692
tp3122
a((F-0.008410042932306848
F-0.05553411483555059
tp3123
F874.2704480169881
F1470682733.707
tp3124
a((F-0.009066537388796024
F-0.0543007180569338
tp3125
F873.151779358782
F1470682733.724
tp3126
a((F-0.009429993416415162
F-0.052286176266305225
tp3127
F885.9982723411146
F1470682733.739
tp3128
a((F-0.00917060148644592
F-0.050964641954908886
tp3129
F900.9315431472106
F1470682733.755
tp3130
a((F-0.009691977864962377
F-0.05033575461098697
tp3131
F896.4549481526868
F1470682733.772
tp3132
a((F-0.009795999561806202
F-0.04901939714928992
tp3133
F911.1726904019171
F1470682733.788
tp3134
a((F-0.009627173729033517
F-0.04936326226937369
tp3135
F899.5070392754059
F1470682733.803
tp3136
a((F-0.008830035998808227
F-0.04795129805339448
tp3137
F916.7837300798353
F1470682733.819
tp3138
a((F-0.009114448819867341
F-0.04813333566814858
tp3139
F917.7960360140634
F1470682733.836
tp3140
a((F-0.008618779411944855
F-0.047662665534483686
tp3141
F919.1403790847354
F1470682733.851
tp3142
a((F-0.008642020234345224
F-0.04822542773619367
tp3143
F905.8423102267899
F1470682733.867
tp3144
a((F-0.008086096433848397
F-0.04808146747993966
tp3145
F904.1487985535518
F1470682733.884
tp3146
a((F-0.008083446334192787
F-0.04839686485980901
tp3147
F894.4671121820849
F1470682733.899
tp3148
a((F-0.007846843136654135
F-0.04844375467666281
tp3149
F893.9855351015591
F1470682733.916
tp3150
a((F-0.008101391123709325
F-0.04802736338094341
tp3151
F895.745643680021
F1470682733.931
tp3152
a((F-0.007436383240331952
F-0.04832628584121583
tp3153
F880.4935164113673
F1470682733.947
tp3154
a((F-0.0074288254122925074
F-0.04797430890729482
tp3155
F879.3897458166657
F1470682733.963
tp3156
a((F-0.0064429769032612865
F-0.04803168268775443
tp3157
F877.7914747080814
F1470682733.979
tp3158
a((F-0.006259000982411432
F-0.04754510047807782
tp3159
F883.5796707989609
F1470682733.995
tp3160
a((F-0.00537224747838002
F-0.047763457865665784
tp3161
F883.3233856120695
F1470682734.011
tp3162
a((F-0.004638814833689632
F-0.0479381387360333
tp3163
F881.4564664962666
F1470682734.027
tp3164
a((F-0.0038567868173973088
F-0.04782916527390492
tp3165
F886.641154690541
F1470682734.043
tp3166
a((F-0.002260764067433407
F-0.04797731805765765
tp3167
F888.3558523722334
F1470682734.059
tp3168
a((F-0.0018074667510132288
F-0.04807753830525514
tp3169
F891.7666757182698
F1470682734.075
tp3170
a((F-0.0013353115375443843
F-0.04811332920276001
tp3171
F895.4654759094666
F1470682734.092
tp3172
a((F-0.0005940473470270286
F-0.04845565184161223
tp3173
F900.5048530636088
F1470682734.107
tp3174
a((F0.00046018093729566803
F-0.04854256636753464
tp3175
F905.728527056114
F1470682734.123
tp3176
a((F0.0010043473317979828
F-0.04858727386243905
tp3177
F916.1979314204733
F1470682734.139
tp3178
a((F0.0016642161719470302
F-0.049047960391844704
tp3179
F915.7639875633303
F1470682734.156
tp3180
a((F0.0027615540588202397
F-0.04985408798554979
tp3181
F908.2936287838183
F1470682734.171
tp3182
a((F0.0031578496157239023
F-0.05014847301269849
tp3183
F899.9753198212821
F1470682734.187
tp3184
a((F0.0032909842553009096
F-0.050441617011547396
tp3185
F900.6742182133253
F1470682734.203
tp3186
a((F0.004071017174205958
F-0.0508662966956108
tp3187
F896.7246035029877
F1470682734.219
tp3188
a((F0.0044840393244051455
F-0.051845781628409505
tp3189
F883.6229192726025
F1470682734.236
tp3190
a((F0.004438247422907184
F-0.052035030335390864
tp3191
F885.6962909998302
F1470682734.252
tp3192
a((F0.005056100281595987
F-0.053132880536585374
tp3193
F873.0424838108538
F1470682734.267
tp3194
a((F0.005260775544255285
F-0.05299444804134995
tp3195
F870.9429272981112
F1470682734.283
tp3196
a((F0.004837318577467103
F-0.05332967350604029
tp3197
F871.5832254246386
F1470682734.299
tp3198
a((F0.004870467751837482
F-0.05330385604732371
tp3199
F877.5947400560777
F1470682734.315
tp3200
a((F0.004970988720511492
F-0.05334838538856934
tp3201
F876.2316366266042
F1470682734.331
tp3202
a((F0.005659507893267127
F-0.053438908725721566
tp3203
F871.721811905543
F1470682734.348
tp3204
a((F0.005791971446329405
F-0.054074848539951544
tp3205
F857.5649718438906
F1470682734.364
tp3206
a((F0.004797012542346862
F-0.05410980979828674
tp3207
F854.5850807366412
F1470682734.38
tp3208
a((F0.0055081432541125895
F-0.05440157284193862
tp3209
F850.6028856326576
F1470682734.396
tp3210
a((F0.004525776920393337
F-0.05420322173176219
tp3211
F855.0285141265749
F1470682734.412
tp3212
a((F0.004656213796876229
F-0.054867447298667923
tp3213
F838.0542815358867
F1470682734.427
tp3214
a((F0.002630945597328105
F-0.05526917376548141
tp3215
F831.4555801866833
F1470682734.444
tp3216
a((F0.0017202107036543971
F-0.05529293317807018
tp3217
F835.989177622562
F1470682734.46
tp3218
a((F0.0017286277805285272
F-0.054624539186128786
tp3219
F854.0689683761968
F1470682734.476
tp3220
a((F-0.00019455352161450935
F-0.05493908624605817
tp3221
F865.7004151773887
F1470682734.492
tp3222
a((F-0.001105976514490035
F-0.05484654685761333
tp3223
F865.8553189277997
F1470682734.508
tp3224
a((F-0.0024287411731018717
F-0.05492823982209098
tp3225
F854.6250637364633
F1470682734.523
tp3226
a((F-0.0035580774812904704
F-0.05506789283940754
tp3227
F858.883075486402
F1470682734.539
tp3228
a((F-0.004932950104001942
F-0.05500047147676268
tp3229
F860.3276155812637
F1470682734.556
tp3230
a((F-0.006517580964531094
F-0.05504782191656377
tp3231
F856.0415097601151
F1470682734.571
tp3232
a((F-0.006516676087318465
F-0.05444181478302206
tp3233
F860.2964236760605
F1470682734.587
tp3234
a((F-0.006221538794180998
F-0.054424880841714304
tp3235
F868.2804345893918
F1470682734.603
tp3236
a((F-0.006657660324416107
F-0.054285520916041746
tp3237
F888.375755904156
F1470682734.62
tp3238
a((F-0.007435338986979674
F-0.054285686601009714
tp3239
F892.8946207166133
F1470682734.636
tp3240
a((F-0.00873675226785776
F-0.054368223405474765
tp3241
F893.0873568715618
F1470682734.652
tp3242
a((F-0.008239614622925063
F-0.05403073762951975
tp3243
F888.2160780229835
F1470682734.669
tp3244
a((F-0.009126817007127067
F-0.053728946425196066
tp3245
F894.6009371863427
F1470682734.684
tp3246
a((F-0.008878185996927603
F-0.05350861161960241
tp3247
F903.818284552437
F1470682734.7
tp3248
a((F-0.008336644564380062
F-0.053288651131451134
tp3249
F915.8803253201784
F1470682734.717
tp3250
a((F-0.008181354052671305
F-0.053076616538121686
tp3251
F921.9578888979269
F1470682734.732
tp3252
a((F-0.008356048101640735
F-0.052105051462192374
tp3253
F940.311373139216
F1470682734.749
tp3254
a((F-0.007893337945230141
F-0.051397620594873246
tp3255
F953.978675510159
F1470682734.765
tp3256
a((F-0.0070809448286166775
F-0.05076289770284459
tp3257
F951.4802709575843
F1470682734.781
tp3258
a((F-0.006912532128053737
F-0.04961168394517657
tp3259
F953.9607104557788
F1470682734.797
tp3260
a((F-0.005752161350477858
F-0.048875374474964345
tp3261
F949.1955253127272
F1470682734.813
tp3262
a((F-0.005388671323451819
F-0.0477920258488011
tp3263
F935.246925430745
F1470682734.829
tp3264
a((F-0.004885412115635429
F-0.04776816751483428
tp3265
F918.7357724165868
F1470682734.844
tp3266
a((F-0.004385688928230103
F-0.046472384968813826
tp3267
F922.2698077549227
F1470682734.861
tp3268
a((F-0.0036736056761564216
F-0.04557801503420456
tp3269
F919.5870601371271
F1470682734.877
tp3270
a((F-0.003732572380102695
F-0.04503984969157586
tp3271
F914.2682137296836
F1470682734.892
tp3272
a((F-0.0031457977266074535
F-0.043864750152363734
tp3273
F903.3804559240194
F1470682734.908
tp3274
a((F-0.003437468530156244
F-0.04272093980594777
tp3275
F905.3387052788098
F1470682734.925
tp3276
a((F-0.0028076736472350287
F-0.04135131076281939
tp3277
F899.8234193220873
F1470682734.94
tp3278
a((F-0.002102780563381152
F-0.039725277913953035
tp3279
F903.8696143519606
F1470682734.957
tp3280
a((F-0.001972695650970445
F-0.037462748232526585
tp3281
F909.3717093605528
F1470682734.973
tp3282
a((F-0.0006101450244095613
F-0.035469857685081776
tp3283
F925.8626571531963
F1470682734.988
tp3284
a((F0.0006011680636585757
F-0.03322833154978607
tp3285
F949.7489844541724
F1470682735.005
tp3286
a((F0.0016868762513420031
F-0.0312545450074636
tp3287
F964.0659788732223
F1470682735.02
tp3288
a((F0.0022667078184100842
F-0.029696448068295977
tp3289
F964.254429700029
F1470682735.036
tp3290
a((F0.00237712245526694
F-0.02820867257350645
tp3291
F967.0696277635541
F1470682735.052
tp3292
a((F0.0033499877362119894
F-0.026953028331196126
tp3293
F945.3902662327747
F1470682735.068
tp3294
a((F0.004205936524744922
F-0.025909966212940082
tp3295
F927.9655858544146
F1470682735.084
tp3296
a((F0.004846533561219733
F-0.024547535432883554
tp3297
F912.8280444748942
F1470682735.1
tp3298
a((F0.005609792476372496
F-0.023433161459990175
tp3299
F903.7352901218337
F1470682735.117
tp3300
a((F0.00580742407917553
F-0.022112654319034523
tp3301
F895.5853834611647
F1470682735.132
tp3302
a((F0.006499514205462213
F-0.020916911556756016
tp3303
F897.4390389435079
F1470682735.148
tp3304
a((F0.006717655558869913
F-0.019344117415465156
tp3305
F897.3885292251726
F1470682735.164
tp3306
a((F0.006238239199522398
F-0.01777048586637065
tp3307
F901.2179086348401
F1470682735.181
tp3308
a((F0.006786412426843889
F-0.015839388947785703
tp3309
F901.4586421662468
F1470682735.197
tp3310
a((F0.006445577659391935
F-0.013924720071639148
tp3311
F908.2673124347914
F1470682735.213
tp3312
a((F0.006739515179654894
F-0.011612000749738264
tp3313
F907.1874759613025
F1470682735.229
tp3314
a((F0.005519441417929978
F-0.009490827901053848
tp3315
F916.3772280062283
F1470682735.244
tp3316
a((F0.004645099490192207
F-0.008222367939567153
tp3317
F922.3005024651311
F1470682735.261
tp3318
a((F0.003487595389831449
F-0.007129086751871327
tp3319
F924.7994294953885
F1470682735.276
tp3320
a((F0.0031005219981896075
F-0.006104542349764955
tp3321
F921.7804769225636
F1470682735.292
tp3322
a((F0.0026325322849218417
F-0.0050424156274156496
tp3323
F916.4535727156144
F1470682735.309
tp3324
a((F0.002362137739619286
F-0.0037832461265149752
tp3325
F908.6305769840342
F1470682735.324
tp3326
a((F0.0022265650484085495
F-0.0027656197781233426
tp3327
F904.5536789514194
F1470682735.34
tp3328
a((F0.0025400314917679158
F-0.001015621319209188
tp3329
F894.9981289732199
F1470682735.356
tp3330
a((F0.0025311870361364353
F0.0006973066779949272
tp3331
F894.7838253937832
F1470682735.372
tp3332
a((F0.0026008090106022655
F0.0022624951346341612
tp3333
F897.3633224523885
F1470682735.388
tp3334
a((F0.002107946850017534
F0.0036275580589396872
tp3335
F908.1578914446477
F1470682735.405
tp3336
a((F0.001479713207607315
F0.004615407289868769
tp3337
F911.718281544196
F1470682735.421
tp3338
a((F0.00220867565199386
F0.005273766824269244
tp3339
F911.0656582548975
F1470682735.436
tp3340
a((F0.0007486875179691946
F0.005992266085984425
tp3341
F915.0262907199196
F1470682735.452
tp3342
a((F0.001400407641276103
F0.006232801707594139
tp3343
F916.8751724968931
F1470682735.468
tp3344
a((F0.0016572929397218473
F0.006586744180836069
tp3345
F912.6498534138285
F1470682735.484
tp3346
a((F0.0015489984401556001
F0.006511024361694488
tp3347
F911.5887465803775
F1470682735.5
tp3348
a((F0.0015000049450159983
F0.006353427053151904
tp3349
F910.3494024002007
F1470682735.516
tp3350
a((F0.0016591786613855293
F0.006664590623234948
tp3351
F904.48155079862
F1470682735.532
tp3352
a((F0.001250421702844043
F0.006183202921891472
tp3353
F913.1063662305035
F1470682735.549
tp3354
a((F0.001924944809373734
F0.006584075341893064
tp3355
F905.2433833411282
F1470682735.565
tp3356
a((F0.0018355567147888786
F0.006518027536863468
tp3357
F907.1827880518231
F1470682735.581
tp3358
a((F0.001606514041572631
F0.006055760340106101
tp3359
F919.6951688197012
F1470682735.598
tp3360
a((F0.0008717216720827342
F0.0058599892356014085
tp3361
F915.5335829752985
F1470682735.613
tp3362
a((F0.0017350979161184076
F0.005605043387159789
tp3363
F910.4281538417063
F1470682735.629
tp3364
a((F0.0010471051920854372
F0.0053681406068627905
tp3365
F905.3328055215726
F1470682735.645
tp3366
a((F0.0015153583657508242
F0.004861156609937693
tp3367
F910.0277029667859
F1470682735.66
tp3368
a((F0.001598004458128047
F0.004801317605490341
tp3369
F909.2202222038557
F1470682735.676
tp3370
a((F0.0012953681209764414
F0.004903085369221737
tp3371
F910.699171251139
F1470682735.693
tp3372
a((F0.0015093781581682973
F0.005426072665398241
tp3373
F908.4872200329246
F1470682735.709
tp3374
a((F0.0013926093729214027
F0.005285994113874874
tp3375
F908.6433685291518
F1470682735.724
tp3376
a((F0.0010241743535443894
F0.0054695039487258675
tp3377
F907.6765196686302
F1470682735.74
tp3378
a((F0.0012276521140421517
F0.005658276825124162
tp3379
F913.550957849578
F1470682735.756
tp3380
a((F0.00121863073742574
F0.006266454578244398
tp3381
F911.5666011801286
F1470682735.772
tp3382
a((F0.0010735418762467517
F0.006441657613723483
tp3383
F908.5525038172169
F1470682735.788
tp3384
a((F0.0007515237484756956
F0.007032746179385843
tp3385
F901.3591850330575
F1470682735.805
tp3386
a((F0.0009128134659873296
F0.007577370112519663
tp3387
F905.0343833613272
F1470682735.82
tp3388
a((F0.0005093314372266217
F0.008148431483268178
tp3389
F898.7595984102654
F1470682735.836
tp3390
a((F0.0008631396964985425
F0.008613696897054072
tp3391
F904.451744349923
F1470682735.852
tp3392
a((F0.00029437819821468764
F0.00903810378796119
tp3393
F907.2794260263846
F1470682735.869
tp3394
a((F0.00013879417627365027
F0.009748278129956734
tp3395
F907.8891537182246
F1470682735.884
tp3396
a((F-0.0003315054206593282
F0.010031790320499294
tp3397
F905.4816326454247
F1470682735.901
tp3398
a((F-0.0006424892166747475
F0.010485653896233965
tp3399
F910.279687670878
F1470682735.916
tp3400
a((F-0.001036043425619445
F0.010985920931966249
tp3401
F898.8627593746053
F1470682735.933
tp3402
a((F-0.0010947117879841727
F0.011138984669113035
tp3403
F911.8804128179295
F1470682735.949
tp3404
a((F-0.0015272681653673652
F0.01143611628215278
tp3405
F907.3591653752612
F1470682735.965
tp3406
a((F-0.0018304980392117862
F0.01132532785544194
tp3407
F911.739899737247
F1470682735.981
tp3408
a((F-0.00257538736375957
F0.011395347035753383
tp3409
F915.1543792490044
F1470682735.997
tp3410
a((F-0.001895545107169736
F0.012051161697567469
tp3411
F911.8237645090696
F1470682736.013
tp3412
a((F-0.001706712190322596
F0.012276673179689666
tp3413
F910.6052693945815
F1470682736.029
tp3414
a((F-0.0015368222858684086
F0.012135484359402758
tp3415
F912.0293027284064
F1470682736.044
tp3416
a((F-0.001795367172983998
F0.012462476715613766
tp3417
F912.1962840706813
F1470682736.061
tp3418
a((F-0.0023367127788134026
F0.012074919575182103
tp3419
F913.712074936631
F1470682736.077
tp3420
a((F-0.0017795845587826168
F0.012107988136914594
tp3421
F909.8836417394089
F1470682736.093
tp3422
a((F-0.0014173074749903856
F0.012555902725617674
tp3423
F904.4758533104748
F1470682736.108
tp3424
a.