(dp0
S'M5238'
p1
(lp2
(lp3
F0.3374
aF-0.0003
aF-0.0017
aF-0.0726
aF-0.0125
aF0.225
aa(lp4
F0.0021
aF0.3382
aF0.0004
aF0.0098
aF-0.0433
aF-0.0117
aa(lp5
F-0.0005
aF-0.0008
aF0.0847
aF-0.0082
aF-0.0051
aF0.0035
aa(lp6
F0.003
aF0.0026
aF-0.0012
aF19.7556
aF0.0741
aF0.0014
aa(lp7
F0.0026
aF0.0055
aF0.0088
aF-0.0181
aF19.8361
aF0.1955
aa(lp8
F-0.0019
aF0.0002
aF-0.0006
aF0.0638
aF-0.047
aF13.1748
aasS'M5239'
p9
(lp10
(lp11
F0.3482
aF-0.0008
aF-0.0006
aF-0.0782
aF-0.023
aF-0.0396
aa(lp12
F0.0036
aF0.3468
aF0.0009
aF0.0216
aF-0.0857
aF-0.0781
aa(lp13
F-0.0016
aF-0.001
aF0.0871
aF-0.003
aF0.0184
aF0.0192
aa(lp14
F0.0005
aF-0.003
aF-0.0056
aF20.4536
aF-0.428
aF-0.0628
aa(lp15
F-0.003
aF0.0067
aF0.0013
aF0.0971
aF20.4307
aF0.2442
aa(lp16
F0.0051
aF0.002
aF0.0002
aF0.0854
aF0.0779
aF13.5338
aasS'M5237'
p17
(lp18
(lp19
F0.6789
aF0.0034
aF-0.0013
aF-0.2676
aF0.2778
aF0.0501
aa(lp20
F0.0098
aF0.6808
aF0.0023
aF-0.4103
aF-0.1925
aF0.0485
aa(lp21
F-0.004
aF-0.0045
aF0.1643
aF-0.0228
aF-0.0171
aF0.0114
aa(lp22
F-0.0059
aF-0.0037
aF-0.0029
aF38.7248
aF0.0656
aF-0.0667
aa(lp23
F-0.0037
aF0.0103
aF0.0064
aF0.1106
aF38.6657
aF0.0941
aa(lp24
F0.0024
aF-0.0004
aF0.0008
aF-0.0325
aF-0.0992
aF27.5819
aasS'M5170_inv'
p25
(lp26
(lp27
F2.8297
aF0.003
aF0.0308
aF0.0121
aF0.008
aF0.0013
aa(lp28
F-0.024
aF2.8383
aF-0.0143
aF-0.0078
aF0.004
aF0.0101
aa(lp29
F0.033
aF0.024
aF11.3551
aF0.0072
aF0.0053
aF0.0377
aa(lp30
F-0.0001
aF0.0002
aF0.0039
aF0.0487
aF0.0002
aF-0.0004
aa(lp31
F0.0002
aF-0.0001
aF-0.0014
aF-0.0005
aF0.0489
aF-0.0003
aa(lp32
F-0.0004
aF-0.0009
aF-0.0003
aF0.0
aF0.0
aF0.0727
aasS'M5239_inv'
p33
(lp34
(lp35
F2.8717
aF0.0065
aF0.0194
aF0.0109
aF0.0032
aF0.0084
aa(lp36
F-0.0297
aF2.8833
aF-0.0299
aF-0.0033
aF0.012
aF0.0164
aa(lp37
F0.0547
aF0.0326
aF11.4879
aF0.002
aF-0.0101
aF-0.0158
aa(lp38
F-0.0001
aF0.0004
aF0.0032
aF0.0489
aF0.0001
aF0.0002
aa(lp39
F0.0004
aF-0.0009
aF-0.0007
aF-0.0002
aF0.0489
aF-0.0009
aa(lp40
F-0.0011
aF-0.0005
aF-0.0002
aF-0.0003
aF-0.0003
aF0.0739
aasS'M5240_inv'
p41
(lp42
(lp43
F2.9151
aF0.012
aF0.017
aF0.0034
aF-0.0001
aF-0.0014
aa(lp44
F-0.0422
aF2.9202
aF-0.0318
aF-0.0017
aF0.0099
aF0.0395
aa(lp45
F0.0049
aF0.0324
aF11.6915
aF-0.0182
aF-0.0279
aF-0.0266
aa(lp46
F-0.0004
aF-0.0006
aF0.0038
aF0.0495
aF0.0002
aF0.0009
aa(lp47
F-0.0006
aF-0.0009
aF-0.0035
aF-0.0003
aF0.0497
aF0.0001
aa(lp48
F0.0002
aF0.0004
aF-0.0007
aF0.0002
aF-0.0001
aF0.0731
aasS'gridcalibration1466177615'
p49
(lp50
(lp51
(F-44.5
F-53.0
tp52
a(lp53
F4.773907183109497
aF39.08661644158232
aaF0.046792515443285845
aa(lp54
(F-44.5
F-35.33333333333333
tp55
a(lp56
F4.489498158937566
aF36.71488353333186
aaF0.04982521117145368
aa(lp57
(F-44.5
F-17.666666666666664
tp58
a(lp59
F7.631773919591276
aF39.0953675097001
aaF0.04682196494440223
aa(lp60
(F-44.5
F0.0
tp61
a(lp62
F5.691561186349813
aF34.01951757835311
aaF0.0513685106705602
aa(lp63
(F-44.5
F17.66666666666667
tp64
a(lp65
F3.2306768482401202
aF36.202516761806066
aaF0.04830541310251075
aa(lp66
(F-44.5
F35.33333333333334
tp67
a(lp68
F6.023601821195406
aF39.524300583104406
aaF0.04831231351222878
aa(lp69
(F-44.5
F53.0
tp70
a(lp71
F4.773907183109497
aF39.08661644158232
aaF0.046792515443285845
aa(lp72
(F-26.7
F-53.0
tp73
a(lp74
F3.0667049790391556
aF37.187849240542306
aaF0.0513155597392803
aa(lp75
(F-26.7
F-35.33333333333333
tp76
a(lp77
F3.0667049790391556
aF37.187849240542306
aaF0.0513155597392803
aa(lp78
(F-26.7
F-17.666666666666664
tp79
a(lp80
F4.773907183109497
aF39.08661644158232
aaF0.046792515443285845
aa(lp81
(F-26.7
F0.0
tp82
a(lp83
F4.5116790750855
aF39.92756194479927
aaF0.049802662080055404
aa(lp84
(F-26.7
F17.66666666666667
tp85
a(lp86
F5.713603311296066
aF37.13444919762654
aaF0.05134596157916192
aa(lp87
(F-26.7
F35.33333333333334
tp88
a(lp89
F4.530540305117457
aF36.65051803027472
aaF0.049826163510218985
aa(lp90
(F-26.7
F53.0
tp91
a(lp92
F5.417331883141312
aF32.07123988710615
aaF0.05440193385686981
aa(lp93
(F-8.899999999999999
F-53.0
tp94
a(lp95
F4.276416735469652
aF34.5546697780286
aaF0.05285885923838682
aa(lp96
(F-8.899999999999999
F-35.33333333333333
tp97
a(lp98
F4.693475318066423
aF37.623671419539825
aaF0.06340909721763825
aa(lp99
(F-8.899999999999999
F-17.666666666666664
tp100
a(lp101
F4.517137052819782
aF40.7308356261018
aaF0.06639669476300944
aa(lp102
(F-8.899999999999999
F0.0
tp103
a(lp104
F5.197746172176982
aF36.957651441178804
aaF0.07097246510966028
aa(lp105
(F-8.899999999999999
F17.66666666666667
tp106
a(lp107
F5.003682424341475
aF37.61025479927189
aaF0.07398205808593111
aa(lp108
(F-8.899999999999999
F35.33333333333334
tp109
a(lp110
F5.825783104157068
aF37.877547720736935
aaF0.07550280849363927
aa(lp111
(F-8.899999999999999
F53.0
tp112
a(lp113
F5.018775318747036
aF39.77387282867957
aaF0.07395950899453275
aa(lp114
(F8.900000000000006
F-53.0
tp115
a(lp116
F6.280211937692894
aF38.91701751975169
aaF0.06945956745043538
aa(lp117
(F8.900000000000006
F-35.33333333333333
tp118
a(lp119
F5.414522639261882
aF37.03221162890908
aaF0.040772222169746825
aa(lp120
(F8.900000000000006
F-17.666666666666664
tp121
a(lp122
F3.086035392266019
aF34.01016012617805
aaF0.025669747087512733
aa(lp123
(F8.900000000000006
F0.0
tp124
a(lp125
F3.4381561754478036
aF31.48751182294634
aaF0.022659600450743257
aa(lp126
(F8.900000000000006
F17.66666666666667
tp127
a(lp128
F4.524601825170737
aF23.704045450810717
aaF0.01663930717720423
aa(lp129
(F8.900000000000006
F35.33333333333334
tp130
a(lp131
F0.4386436540874278
aF26.201818925505624
aaF0.012085917261484037
aa(lp132
(F8.900000000000006
F53.0
tp133
a(lp134
F7.870280597764482
aF26.155924799940237
aaF0.01815910524614716
aa(lp135
(F26.700000000000003
F-53.0
tp136
a(lp137
F4.279343149530555
aF40.67264550316915
aaF0.05281280871682487
aa(lp138
(F26.700000000000003
F-35.33333333333333
tp139
a(lp140
F5.237249427838728
aF37.60005530516227
aaF0.08455580822376184
aa(lp141
(F26.700000000000003
F-17.666666666666664
tp142
a(lp143
F4.522550887912244
aF41.53436240193639
aaF0.09958343865571245
aa(lp144
(F26.700000000000003
F0.0
tp145
a(lp146
F4.815438785451068
aF39.835472805515074
aaF0.12376565918423758
aa(lp147
(F26.700000000000003
F17.66666666666667
tp148
a(lp149
F4.2286629901445405
aF39.99210987708174
aaF0.1252560077520642
aa(lp150
(F26.700000000000003
F35.33333333333334
tp151
a(lp152
F4.516950390340187
aF40.73038496795196
aaF0.13279278785996962
aa(lp153
(F26.700000000000003
F53.0
tp154
a(lp155
F4.976239889926074
aF39.65369416952115
aaF0.1343359186986085
aa(lp156
(F44.5
F-53.0
tp157
a(lp158
F4.524807709977535
aF39.50125543599648
aaF0.1328188889321591
aa(lp159
(F44.5
F-35.33333333333333
tp160
a(lp161
F4.138976690641046
aF40.29705075916079
aaF0.1282628431542572
aa(lp162
(F44.5
F-17.666666666666664
tp163
a(lp164
F4.138976690641046
aF40.29705075916079
aaF0.1282628431542572
aa(lp165
(F44.5
F0.0
tp166
a(lp167
F4.710570012130538
aF40.14776881609145
aaF0.1267730375185136
aa(lp168
(F44.5
F17.66666666666667
tp169
a(lp170
F4.710570012130538
aF40.14776881609145
aaF0.1267730375185136
aa(lp171
(F44.5
F35.33333333333334
tp172
a(lp173
F4.514526608131518
aF40.38620259268191
aaF0.11619979554944135
aa(lp174
(F44.5
F53.0
tp175
a(lp176
F4.181265286115039
aF39.510908615757494
aaF0.10865970420695938
aasS'gridcalibration1466187461'
p177
(lp178
(lp179
(F-44.5
F-53.0
tp180
a(lp181
F-44.47838840649936
aF-53.03240926078535
aaF0.28895880770036947
aa(lp182
(F-44.5
F-35.33333333333333
tp183
a(lp184
F-45.80539026926937
aF-35.16193900298499
aaF0.30925959371284395
aa(lp185
(F-44.5
F-17.666666666666664
tp186
a(lp187
F-44.95381918061733
aF-16.95595553125638
aaF0.29346579811356577
aa(lp188
(F-44.5
F0.0
tp189
a(lp190
F-45.4011022784636
aF0.6522056059898962
aaF0.30021459576497156
aa(lp191
(F-44.5
F17.66666666666667
tp192
a(lp193
F-45.49274828965165
aF18.475348868907325
aaF0.4087502226270727
aa(lp194
(F-44.5
F35.33333333333334
tp195
a(lp196
F-45.511545373953744
aF36.701940624665035
aaF0.4032174122889132
aa(lp197
(F-44.5
F53.0
tp198
a(lp199
F-44.08443448588821
aF52.5098039510894
aaF0.32046789236077483
aa(lp200
(F-26.7
F-53.0
tp201
a(lp202
F-27.139538594593684
aF-54.2943242516972
aaF0.4906262391700617
aa(lp203
(F-26.7
F-35.33333333333333
tp204
a(lp205
F-27.590868099691395
aF-35.97631918305138
aaF0.372650156163705
aa(lp206
(F-26.7
F-17.666666666666664
tp207
a(lp208
F-27.542768067818184
aF-18.021281955342097
aaF0.3626320410179159
aa(lp209
(F-26.7
F0.0
tp210
a(lp211
F-27.84644220811567
aF0.3838019998800898
aaF0.30289242928578647
aa(lp212
(F-26.7
F17.66666666666667
tp213
a(lp214
F-28.181667471188
aF17.87967341804944
aaF0.2750637719590193
aa(lp215
(F-26.7
F35.33333333333334
tp216
a(lp217
F-27.613625693821902
aF37.71871463539772
aaF0.33728305879856724
aa(lp218
(F-26.7
F53.0
tp219
a(lp220
F-27.75694930063473
aF52.978495200504646
aaF0.2991551436340988
aa(lp221
(F-8.899999999999999
F-53.0
tp222
a(lp223
F-8.20922529477143
aF-52.32694061365422
aaF0.4879814344997806
aa(lp224
(F-8.899999999999999
F-35.33333333333333
tp225
a(lp226
F-8.365377321156803
aF-35.32746460391456
aaF0.47764634919874294
aa(lp227
(F-8.899999999999999
F-17.666666666666664
tp228
a(lp229
F-8.622795240352529
aF-16.01854329311413
aaF0.5293942142376967
aa(lp230
(F-8.899999999999999
F0.0
tp231
a(lp232
F-9.205250063431475
aF0.9912238590199428
aaF0.5098810781362284
aa(lp233
(F-8.899999999999999
F17.66666666666667
tp234
a(lp235
F-10.361335205346927
aF19.169414434940535
aaF0.45411978812876586
aa(lp236
(F-8.899999999999999
F35.33333333333334
tp237
a(lp238
F-10.58696195404431
aF36.599873079828434
aaF0.4439407150099396
aa(lp239
(F-8.899999999999999
F53.0
tp240
a(lp241
F-11.117408118472284
aF54.5750510471923
aaF0.4052375641842111
aa(lp242
(F8.900000000000006
F-53.0
tp243
a(lp244
F7.457570378588087
aF-51.8491953901336
aaF0.42538852900262725
aa(lp245
(F8.900000000000006
F-35.33333333333333
tp246
a(lp247
F8.165001830119053
aF-33.913807463489064
aaF0.37703663772927065
aa(lp248
(F8.900000000000006
F-17.666666666666664
tp249
a(lp250
F8.508833847799693
aF-15.28251731161842
aaF0.4278222573041527
aa(lp251
(F8.900000000000006
F0.0
tp252
a(lp253
F7.961951693197526
aF2.933734427735135
aaF0.43120438796271354
aa(lp254
(F8.900000000000006
F17.66666666666667
tp255
a(lp256
F7.403727190147642
aF20.841412088740988
aaF0.34827843018603294
aa(lp257
(F8.900000000000006
F35.33333333333334
tp258
a(lp259
F6.864809026368358
aF39.686326494243694
aaF0.2929443747331687
aa(lp260
(F8.900000000000006
F53.0
tp261
a(lp262
F7.054178078104113
aF57.400666189364735
aaF0.293723974311619
aa(lp263
(F26.700000000000003
F-53.0
tp264
a(lp265
F25.213168001464084
aF-51.24251180083596
aaF0.3702088445190873
aa(lp266
(F26.700000000000003
F-35.33333333333333
tp267
a(lp268
F27.193715470930503
aF-34.0393180540762
aaF0.3725176643281534
aa(lp269
(F26.700000000000003
F-17.666666666666664
tp270
a(lp271
F25.04209465912121
aF-15.238876774654406
aaF0.3438244656585088
aa(lp272
(F26.700000000000003
F0.0
tp273
a(lp274
F25.04837707172225
aF2.7710571519798295
aaF0.30178335733594885
aa(lp275
(F26.700000000000003
F17.66666666666667
tp276
a(lp277
F24.54362144248662
aF21.313530022467496
aaF0.29334586448045563
aa(lp278
(F26.700000000000003
F35.33333333333334
tp279
a(lp280
F24.90520326248819
aF40.1264616120334
aaF0.30470884696566725
aa(lp281
(F26.700000000000003
F53.0
tp282
a(lp283
F24.538263840339827
aF56.86826800906148
aaF0.2918596677399308
aa(lp284
(F44.5
F-53.0
tp285
a(lp286
F44.47861908008052
aF-52.389661986848424
aaF0.27929365857899163
aa(lp287
(F44.5
F-35.33333333333333
tp288
a(lp289
F44.5
aF-34.05843153967344
aaF0.32318181941929464
aa(lp290
(F44.5
F-17.666666666666664
tp291
a(lp292
F44.07465450968776
aF-14.6207938424575
aaF0.2976883921827243
aa(lp293
(F44.5
F0.0
tp294
a(lp295
F44.52834551090223
aF2.7024892597600374
aaF0.28320098252885567
aa(lp296
(F44.5
F17.66666666666667
tp297
a(lp298
F43.27745372498394
aF20.311456866523866
aaF0.3205624753968642
aa(lp299
(F44.5
F35.33333333333334
tp300
a(lp301
F43.62445705141546
aF39.594767758710056
aaF0.2938229003514212
aa(lp302
(F44.5
F53.0
tp303
a(lp304
F43.163169068564066
aF54.64110045829023
aaF0.29315783394195516
aasS'M5238_inv'
p305
(lp306
(lp307
F2.964
aF0.0025
aF0.061
aF0.0109
aF0.0018
aF-0.0051
aa(lp308
F-0.0188
aF2.9567
aF-0.0161
aF-0.0015
aF0.0064
aF0.0026
aa(lp309
F0.0172
aF0.0281
aF11.8009
aF0.005
aF0.0031
aF-0.0032
aa(lp310
F-0.0004
aF-0.0004
aF0.0008
aF0.0506
aF-0.0002
aF0.0
aa(lp311
F-0.0004
aF-0.0008
aF-0.0052
aF0.0
aF0.0504
aF-0.0007
aa(lp312
F0.0004
aF0.0
aF0.0005
aF-0.0002
aF0.0002
aF0.076
aasS'M5237_inv'
p313
(lp314
(lp315
F1.4732
aF-0.007
aF0.126
aF0.0101
aF-0.0106
aF-0.0026
aa(lp316
F-0.0211
aF1.4689
aF-0.0209
aF0.0154
aF0.0074
aF-0.0025
aa(lp317
F0.0352
aF0.0399
aF6.0877
aF0.0042
aF0.0026
aF-0.0026
aa(lp318
F0.0002
aF0.0001
aF0.0005
aF0.0256
aF0.0
aF0.0001
aa(lp319
F0.0001
aF-0.0004
aF-0.001
aF-0.0001
aF0.0259
aF-0.0001
aa(lp320
F-0.0001
aF0.0
aF-0.0002
aF0.0
aF0.0001
aF0.0363
aasS'gridcalibration1466177090'
p321
(lp322
(lp323
(F-44.5
F-53.0
tp324
a(lp325
F-0.7023021551012095
aF36.47777320006644
aF0.05881985231761608
aaa(lp326
(F-44.5
F-35.33333333333333
tp327
a(lp328
F0.45338120759396344
aF34.190102685774754
aF0.060363151816722596
aaa(lp329
(F-44.5
F-17.666666666666664
tp330
a(lp331
F0.45338120759396344
aF34.190102685774754
aF0.060363151816722596
aaa(lp332
(F-44.5
F0.0
tp333
a(lp334
F1.5913634949068172
aF33.71393538990634
aF0.05887280324889605
aaa(lp335
(F-44.5
F17.66666666666667
tp336
a(lp337
F1.5913634949068172
aF33.71393538990634
aF0.05887280324889605
aaa(lp338
(F-44.5
F35.33333333333334
tp339
a(lp340
F0.45338120759396344
aF34.190102685774754
aF0.060363151816722596
aaa(lp341
(F-44.5
F53.0
tp342
a(lp343
F1.5913634949068172
aF33.71393538990634
aF0.05887280324889605
aaa(lp344
(F-26.7
F-53.0
tp345
a(lp346
F0.4527087650892085
aF29.988680157429982
aF0.0634191240944305
aaa(lp347
(F-26.7
F-35.33333333333333
tp348
a(lp349
F-1.8005685953748831
aF34.234038020102
aF0.06033274997684098
aaa(lp350
(F-26.7
F-17.666666666666664
tp351
a(lp352
F-0.7636630819879513
aF35.58663204769819
aF0.05580970568084661
aaa(lp353
(F-26.7
F0.0
tp354
a(lp355
F1.5512872406760498
aF32.01680216037181
aF0.0619062264352056
aaa(lp356
(F-26.7
F17.66666666666667
tp357
a(lp358
F-1.6924144958174636
aF30.028187770873284
aF0.0633889471351724
aaa(lp359
(F-26.7
F35.33333333333334
tp360
a(lp361
F-0.6842488206178453
aF33.70428323813232
aF0.05884335374777967
aaa(lp362
(F-26.7
F53.0
tp363
a(lp364
F0.45338120759396344
aF34.190102685774754
aF0.060363151816722596
aaa(lp365
(F-8.899999999999999
F-53.0
tp366
a(lp367
F1.5737166292914677
aF30.9984024609215
aF0.05889535234029433
aaa(lp368
(F-8.899999999999999
F-35.33333333333333
tp369
a(lp370
F0.4365948179972341
aF31.541412625399925
aF0.060385700908120954
aaa(lp371
(F-8.899999999999999
F-17.666666666666664
tp372
a(lp373
F-0.6617251874180481
aF29.47508950615554
aF0.06189859856734585
aaa(lp374
(F-8.899999999999999
F0.0
tp375
a(lp376
F1.5913634949068172
aF33.71393538990634
aF0.05887280324889605
aaa(lp377
(F-8.899999999999999
F17.66666666666667
tp378
a(lp379
F-0.7010328217182934
aF30.987395476571706
aF0.05886590283917802
aaa(lp380
(F-8.899999999999999
F35.33333333333334
tp381
a(lp382
F0.45338120759396344
aF34.190102685774754
aF0.060363151816722596
aaa(lp383
(F-8.899999999999999
F53.0
tp384
a(lp385
F1.5913634949068172
aF33.71393538990634
aF0.05887280324889605
aaa(lp386
(F8.900000000000006
F-53.0
tp387
a(lp388
F1.5737166292914677
aF30.9984024609215
aF0.05889535234029433
aaa(lp389
(F8.900000000000006
F-35.33333333333333
tp390
a(lp391
F0.43632142725651246
aF35.10886520051784
aF0.05431935711301998
aaa(lp392
(F8.900000000000006
F-17.666666666666664
tp393
a(lp394
F0.45432694910069205
aF33.20287369993976
aF0.05735300517995313
aaa(lp395
(F8.900000000000006
F0.0
tp396
a(lp397
F0.45432694910069205
aF33.20287369993976
aF0.05735300517995313
aaa(lp398
(F8.900000000000006
F17.66666666666667
tp399
a(lp400
F0.43665950797534486
aF30.41561095889244
aF0.057375554271351395
aaa(lp401
(F8.900000000000006
F35.33333333333334
tp402
a(lp403
F0.45432694910069205
aF33.20287369993976
aF0.05735300517995313
aaa(lp404
(F8.900000000000006
F53.0
tp405
a(lp406
F0.45338120759396344
aF34.190102685774754
aF0.060363151816722596
aaa(lp407
(F26.700000000000003
F-53.0
tp408
a(lp409
F-0.7010328217182934
aF30.987395476571706
aF0.05886590283917802
aaa(lp410
(F26.700000000000003
F-35.33333333333333
tp411
a(lp412
F-1.7825401467218878
aF31.530942381173144
aF0.06035625140700457
aaa(lp413
(F26.700000000000003
F-17.666666666666664
tp414
a(lp415
F0.45432694910069205
aF33.20287369993976
aF0.05735300517995313
aaa(lp416
(F26.700000000000003
F0.0
tp417
a(lp418
F0.45357315593288394
aF28.842038549727114
aF0.06040897745766102
aaa(lp419
(F26.700000000000003
F17.66666666666667
tp420
a(lp421
F0.4365948179972341
aF31.541412625399925
aF0.060385700908120954
aaa(lp422
(F26.700000000000003
F35.33333333333334
tp423
a(lp424
F0.4365948179972341
aF31.541412625399925
aF0.060385700908120954
aaa(lp425
(F26.700000000000003
F53.0
tp426
a(lp427
F-0.7010328217182934
aF30.987395476571706
aF0.05886590283917802
aaa(lp428
(F44.5
F-53.0
tp429
a(lp430
F-0.7010328217182934
aF30.987395476571706
aF0.05886590283917802
aaa(lp431
(F44.5
F-35.33333333333333
tp432
a(lp433
F-2.028278337657555
aF29.15222251293476
aF0.05433595813346562
aaa(lp434
(F44.5
F-17.666666666666664
tp435
a(lp436
F-2.0484114921926477
aF32.15391494085633
aF0.05431245670330195
aaa(lp437
(F44.5
F0.0
tp438
a(lp439
F-1.9179826329298515
aF33.24859259285209
aF0.057322603340071505
aaa(lp440
(F44.5
F17.66666666666667
tp441
a(lp442
F0.43632142725651246
aF35.10886520051784
aF0.05431935711301998
aaa(lp443
(F44.5
F35.33333333333334
tp444
a(lp445
F-2.0484114921926477
aF32.15391494085633
aF0.05431245670330195
aaa(lp446
(F44.5
F53.0
tp447
a(lp448
F3.0453019620828354
aF34.070114787594854
aF0.05133865997736674
aaasS'M5170'
p449
(lp450
(lp451
F0.3534
aF-0.0004
aF-0.0009
aF-0.0883
aF-0.0571
aF-0.0063
aa(lp452
F0.003
aF0.3523
aF0.0004
aF0.0555
aF-0.0295
aF-0.0488
aa(lp453
F-0.001
aF-0.0008
aF0.0881
aF-0.013
aF-0.0092
aF-0.0456
aa(lp454
F0.0007
aF-0.0013
aF-0.007
aF20.5413
aF-0.978
aF0.1023
aa(lp455
F-0.0012
aF0.001
aF0.0024
aF0.1935
aF20.4513
aF0.0734
aa(lp456
F0.0021
aF0.0045
aF0.0003
aF0.0003
aF-0.0132
aF13.7464
aasS'ForcePlates_plates_3'
p457
(F-86.7399
F0.005429320829969416
tp458
sS'ForcePlates_plates_2'
p459
(F-89.7593
F0.005536604987041576
tp460
sS'ForcePlates_plates_1'
p461
(F-8.2348
F0.005622015588162621
tp462
sS'ForcePlates_plates_0'
p463
(F-18.94
F1.214476560602376
tp464
sS'gridcalibration1466177036.0'
p465
(lp466
(lp467
(F-44.5
F-53.0
tp468
a(lp469
F-3.4361412664247593
aF27.359522292152704
aF0.06942507361645052
aaa(lp470
(F-44.5
F-35.33333333333333
tp471
a(lp472
F-3.4361412664247593
aF27.359522292152704
aF0.06942507361645052
aaa(lp473
(F-44.5
F-17.666666666666664
tp474
a(lp475
F-3.4361412664247593
aF27.359522292152704
aF0.06942507361645052
aaa(lp476
(F-44.5
F0.0
tp477
a(lp478
F-3.4361412664247593
aF27.359522292152704
aF0.06942507361645052
aaa(lp479
(F-44.5
F17.66666666666667
tp480
a(lp481
F-3.821828821005219
aF27.495520003145327
aF0.06338204672545436
aaa(lp482
(F-44.5
F35.33333333333334
tp483
a(lp484
F-2.4092417429136397
aF27.908798759660694
aF0.07094487168539346
aaa(lp485
(F-44.5
F53.0
tp486
a(lp487
F-3.275255555916389
aF28.425048116021653
aF0.07243522025322008
aaa(lp488
(F-26.7
F-53.0
tp489
a(lp490
F-4.118668764153057
aF26.759180637922217
aF0.07394811791244499
aaa(lp491
(F-26.7
F-35.33333333333333
tp492
a(lp493
F-3.2597600185137154
aF26.175323078059822
aF0.07245872168338366
aaa(lp494
(F-26.7
F-17.666666666666664
tp495
a(lp496
F-3.611944987728547
aF26.19762918498971
aF0.06641546991176399
aaa(lp497
(F-26.7
F0.0
tp498
a(lp499
F0.43673136156459946
aF29.165140748634293
aF0.05436540763458185
aaa(lp500
(F-26.7
F17.66666666666667
tp501
a(lp502
F-1.0160878365851997
aF28.808585723693746
aF0.04680181486193638
aaa(lp503
(F-26.7
F35.33333333333334
tp504
a(lp505
F-1.1158574128701315
aF27.145719080931936
aF0.04379166822516683
aaa(lp506
(F-26.7
F53.0
tp507
a(lp508
F-0.9069533162334461
aF26.998599331506668
aF0.04983546292886944
aaa(lp509
(F-8.899999999999999
F-53.0
tp510
a(lp511
F-3.178800893119096
aF26.92678918263887
aF0.05584885579269051
aaa(lp512
(F-8.899999999999999
F-35.33333333333333
tp513
a(lp514
F-2.0458965318004627
aF26.21193930202034
aF0.05435850722486389
aaa(lp515
(F-8.899999999999999
F-17.666666666666664
tp516
a(lp517
F-2.0458965318004627
aF26.21193930202034
aF0.05435850722486389
aaa(lp518
(F-8.899999999999999
F0.0
tp519
a(lp520
F-0.9283764505609419
aF30.27047764947973
aF0.049811961498705856
aaa(lp521
(F-8.899999999999999
F17.66666666666667
tp522
a(lp523
F-2.194146094668047
aF30.93077756655071
aF0.05130231006653248
aaa(lp524
(F-8.899999999999999
F35.33333333333334
tp525
a(lp526
F0.4368116384326979
aF27.76807996032619
aF0.051355260997812374
aaa(lp527
(F-8.899999999999999
F53.0
tp528
a(lp529
F-0.9283764505609419
aF30.27047764947973
aF0.049811961498705856
aaa(lp530
(F8.900000000000006
F-53.0
tp531
a(lp532
F-3.406002113056345
aF28.52657085441022
aF0.052815207725757374
aaa(lp533
(F8.900000000000006
F-35.33333333333333
tp534
a(lp535
F-0.9069533162334461
aF26.998599331506668
aF0.04983546292886944
aaa(lp536
(F8.900000000000006
F-17.666666666666664
tp537
a(lp538
F-0.9283764505609419
aF30.27047764947973
aF0.049811961498705856
aaa(lp539
(F8.900000000000006
F0.0
tp540
a(lp541
F-1.9157043299394274
aF27.61751508928013
aF0.05736865386163337
aaa(lp542
(F8.900000000000006
F17.66666666666667
tp543
a(lp544
F-3.178800893119096
aF26.92678918263887
aF0.05584885579269051
aaa(lp545
(F8.900000000000006
F35.33333333333334
tp546
a(lp547
F-4.533775863609243
aF29.198213731609606
aF0.054305556293583995
aaa(lp548
(F8.900000000000006
F53.0
tp549
a(lp550
F-1.9157043299394274
aF27.61751508928013
aF0.05736865386163337
aaa(lp551
(F26.700000000000003
F-53.0
tp552
a(lp553
F-3.178800893119096
aF26.92678918263887
aF0.05584885579269051
aaa(lp554
(F26.700000000000003
F-35.33333333333333
tp555
a(lp556
F-3.178800893119096
aF26.92678918263887
aF0.05584885579269051
aaa(lp557
(F26.700000000000003
F-17.666666666666664
tp558
a(lp559
F-3.178800893119096
aF26.92678918263887
aF0.05584885579269051
aaa(lp560
(F26.700000000000003
F0.0
tp561
a(lp562
F-3.406002113056345
aF28.52657085441022
aF0.052815207725757374
aaa(lp563
(F26.700000000000003
F17.66666666666667
tp564
a(lp565
F-3.178800893119096
aF26.92678918263887
aF0.05584885579269051
aaa(lp566
(F26.700000000000003
F35.33333333333334
tp567
a(lp568
F-3.178800893119096
aF26.92678918263887
aF0.05584885579269051
aaa(lp569
(F26.700000000000003
F53.0
tp570
a(lp571
F-0.8304935060911471
aF28.47966898737556
aF0.052845609565638996
aaa(lp572
(F44.5
F-53.0
tp573
a(lp574
F-2.194146094668047
aF30.93077756655071
aF0.05130231006653248
aaa(lp575
(F44.5
F-35.33333333333333
tp576
a(lp577
F-2.212732771417769
aF27.815922239385234
aF0.05132485915793075
aaa(lp578
(F44.5
F-17.666666666666664
tp579
a(lp580
F-2.19135300360426
aF24.641568020599163
aF0.05134836058809435
aaa(lp581
(F44.5
F0.0
tp582
a(lp583
F-0.8304935060911471
aF28.47966898737556
aF0.052845609565638996
aaa(lp584
(F44.5
F17.66666666666667
tp585
a(lp586
F0.4368116384326979
aF27.76807996032619
aF0.051355260997812374
aaa(lp587
(F44.5
F35.33333333333334
tp588
a(lp589
F-2.194146094668047
aF30.93077756655071
aF0.05130231006653248
aaa(lp590
(F44.5
F53.0
tp591
a(lp592
F-0.9069533162334461
aF26.998599331506668
aF0.04983546292886944
aaasS'gridcalibration1466176819.16'
p593
(lp594
(lp595
(F-44.5
F-53.0
tp596
a(lp597
F15.247341034498348
aF36.68809024119377
aF0.04994451266137246
aaa(lp598
(F-44.5
F-35.33333333333333
tp599
a(lp600
F14.405371128054913
aF37.61532197019632
aF0.05295465929814194
aaa(lp601
(F-44.5
F-17.666666666666664
tp602
a(lp603
F12.158601154226664
aF35.98046284267377
aF0.05747843105227811
aaa(lp604
(F-44.5
F0.0
tp605
a(lp606
F13.162133953657337
aF35.03279401644355
aF0.06355167525709711
aaa(lp607
(F-44.5
F17.66666666666667
tp608
a(lp609
F13.782989713961745
aF36.83529109491432
aF0.06051802719016397
aaa(lp610
(F-44.5
F35.33333333333334
tp611
a(lp612
F11.027406276424745
aF35.07492728556806
aF0.06352127341721549
aaa(lp613
(F-44.5
F53.0
tp614
a(lp615
F13.14168181692951
aF32.51664837177034
aF0.06357422434849538
aaa(lp616
(F-26.7
F-53.0
tp617
a(lp618
F12.145498828091714
aF38.82041262388323
aF0.057455154502738026
aaa(lp619
(F-26.7
F-35.33333333333333
tp620
a(lp621
F12.361501981431987
aF34.644261347360555
aF0.062030924849388866
aaa(lp622
(F-26.7
F-17.666666666666664
tp623
a(lp624
F11.541633191595585
aF36.88010928416988
aF0.06048785023090586
aaa(lp625
(F-26.7
F0.0
tp626
a(lp627
F12.969752700963697
aF33.708091634863464
aF0.05902077821261939
aaa(lp628
(F-26.7
F17.66666666666667
tp629
a(lp630
F12.99171760949735
aF36.418887183391874
aF0.05899822912122103
aaa(lp631
(F-26.7
F35.33333333333334
tp632
a(lp633
F14.481647305683047
aF35.98917846344942
aF0.057507880553394494
aaa(lp634
(F-26.7
F53.0
tp635
a(lp636
F12.99171760949735
aF36.418887183391874
aF0.05899822912122103
aaa(lp637
(F-8.899999999999999
F-53.0
tp638
a(lp639
F11.554311141893201
aF34.183238430707185
aF0.06051112678044593
aaa(lp640
(F-8.899999999999999
F-35.33333333333333
tp641
a(lp642
F12.361501981431987
aF34.644261347360555
aF0.062030924849388866
aaa(lp643
(F-8.899999999999999
F-17.666666666666664
tp644
a(lp645
F12.567254425680078
aF33.44265985316029
aF0.06658437098526493
aaa(lp646
(F-8.899999999999999
F0.0
tp647
a(lp648
F8.520624201343638
aF33.47350655456128
aF0.066524519644267
aaa(lp649
(F-8.899999999999999
F17.66666666666667
tp650
a(lp651
F13.89405572932373
aF35.45243296977245
aF0.06507147332604003
aaa(lp652
(F-8.899999999999999
F35.33333333333334
tp653
a(lp654
F11.027406276424745
aF35.07492728556806
aF0.06352127341721549
aaa(lp655
(F-8.899999999999999
F53.0
tp656
a(lp657
F11.809551806029484
aF35.49377787142985
aF0.06504107148615841
aaa(lp658
(F8.900000000000006
F-53.0
tp659
a(lp660
F12.38217943330118
aF37.223803944534055
aF0.06200837575799059
aaa(lp661
(F8.900000000000006
F-35.33333333333333
tp662
a(lp663
F12.567254425680078
aF33.44265985316029
aF0.06658437098526493
aaa(lp664
(F8.900000000000006
F-17.666666666666664
tp665
a(lp666
F12.04251803708195
aF34.28856645153474
aF0.0695945176220344
aaa(lp667
(F8.900000000000006
F0.0
tp668
a(lp669
F11.317890469993428
aF33.870825463972814
aF0.06807471955309155
aaa(lp670
(F8.900000000000006
F17.66666666666667
tp671
a(lp672
F13.89405572932373
aF35.45243296977245
aF0.06507147332604003
aaa(lp673
(F8.900000000000006
F35.33333333333334
tp674
a(lp675
F11.809551806029484
aF35.49377787142985
aF0.06504107148615841
aaa(lp676
(F8.900000000000006
F53.0
tp677
a(lp678
F11.821359649388958
aF32.985833558041854
aF0.065064572916322
aaa(lp679
(F26.700000000000003
F-53.0
tp680
a(lp681
F10.548179963658166
aF35.88592902431669
aF0.06653142005398503
aaa(lp682
(F26.700000000000003
F-35.33333333333333
tp683
a(lp684
F10.548179963658166
aF35.88592902431669
aF0.06653142005398503
aaa(lp685
(F26.700000000000003
F-17.666666666666664
tp686
a(lp687
F11.047124665613351
aF37.59407959096081
aF0.06349872432581721
aaa(lp688
(F26.700000000000003
F0.0
tp689
a(lp690
F12.38217943330118
aF37.223803944534055
aF0.06200837575799059
aaa(lp691
(F26.700000000000003
F17.66666666666667
tp692
a(lp693
F11.027406276424745
aF35.07492728556806
aF0.06352127341721549
aaa(lp694
(F26.700000000000003
F35.33333333333334
tp695
a(lp696
F14.535492767082038
aF37.23129294179349
aF0.062037825259106893
aaa(lp697
(F26.700000000000003
F53.0
tp698
a(lp699
F12.361501981431987
aF34.644261347360555
aF0.062030924849388866
aaa(lp700
(F44.5
F-53.0
tp701
a(lp702
F12.567254425680078
aF33.44265985316029
aF0.06658437098526493
aaa(lp703
(F44.5
F-35.33333333333333
tp704
a(lp705
F12.361501981431987
aF34.644261347360555
aF0.062030924849388866
aaa(lp706
(F44.5
F-17.666666666666664
tp707
a(lp708
F12.38217943330118
aF37.223803944534055
aF0.06200837575799059
aaa(lp709
(F44.5
F0.0
tp710
a(lp711
F10.560168803998108
aF33.434006039172644
aF0.06655492148414863
aaa(lp712
(F44.5
F17.66666666666667
tp713
a(lp714
F13.162133953657337
aF35.03279401644355
aF0.06355167525709711
aaa(lp715
(F44.5
F35.33333333333334
tp716
a(lp717
F13.162133953657337
aF35.03279401644355
aF0.06355167525709711
aaa(lp718
(F44.5
F53.0
tp719
a(lp720
F13.782989713961745
aF36.83529109491432
aF0.06051802719016397
aaasS'gridcalibration1466176296.83'
p721
(lp722
((F-44.5
F-53.0
tp723
(F5.814328800658145
F-4.21025200253915
F0.062285739667423935
tp724
tp725
a((F-44.5
F-35.33333333333333
tp726
(F5.814328800658145
F-4.21025200253915
F0.062285739667423935
tp727
tp728
a((F-44.5
F-17.666666666666664
tp729
(F5.800110941272826
F-1.6049258060223914
F0.062262856658975047
tp730
tp731
a((F-44.5
F0.0
tp732
(F6.091903216870982
F-1.6932756141061374
F0.05923016093080721
tp733
tp734
a((F-44.5
F17.66666666666667
tp735
(F6.735791270380583
F-2.8475484880503097
F0.06380553773636687
tp736
tp737
a((F-44.5
F35.33333333333334
tp738
(F4.707101709276147
F-2.059230980053296
F0.09413642446440396
tp739
tp740
a((F-44.5
F53.0
tp741
(F3.4603588551572044
F-2.542162972184064
F0.11081548912029612
tp742
tp743
a((F-26.7
F-53.0
tp744
(F3.9209390208097994
F-3.1470033012715324
F0.1153914281274146
tp745
tp746
a((F-26.7
F-35.33333333333333
tp747
(F4.307215115520371
F-3.1425379007141867
F0.08655088996720417
tp748
tp749
a((F-26.7
F-17.666666666666664
tp750
(F12.024878481917963
F-3.0464121270517497
F0.028899707208351888
tp751
tp752
a((F-26.7
F0.0
tp753
(F-74.8033886323634
F17.085280819272803
F-0.004463594147073597
tp754
tp755
a((F-26.7
F17.66666666666667
tp756
(F-335.69213457362645
F55.329706253022245
F-0.0014006652394917916
tp757
tp758
a((F-26.7
F35.33333333333334
tp759
(F-33.0735423935563
F12.712945750748217
F-0.012020230289845255
tp760
tp761
a((F-26.7
F53.0
tp762
(F19.480653415240248
F37.572606951229865
F0.021206152940439215
tp763
tp764
a((F-8.899999999999999
F-53.0
tp765
(F6.394298697254719
F38.62777985514548
F0.04530271802214746
tp766
tp767
a((F-8.899999999999999
F-35.33333333333333
tp768
(F6.159242714852914
F41.93873059024958
F0.058863102638168456
tp769
tp770
a((F-8.899999999999999
F-17.666666666666664
tp771
(F5.624805705798472
F37.98281459461065
F0.06492944643326934
tp772
tp773
a((F-8.899999999999999
F0.0
tp774
(F6.820608736512169
F40.15334720622159
F0.06341654877404444
tp775
tp776
a((F-8.899999999999999
F17.66666666666667
tp777
(F20.571154482908103
F53.00000000000001
F0.01662943025502308
tp778
tp779
a((F-8.899999999999999
F35.33333333333334
tp780
(F-182.66836899319495
F-56.18872115741429
F-0.002936895668412654
tp781
tp782
a((F-8.899999999999999
F53.0
tp783
(F-329.4625363164801
F-59.57651295476719
F-0.0014239980091877353
tp784
tp785
a((F8.900000000000006
F-53.0
tp786
(F-12.05431072151981
F-17.86816969671593
F0.054580627902090645
tp787
tp788
a((F8.900000000000006
F-35.33333333333333
tp789
(F-17.276418263840036
F-18.753599386051256
F0.06512654079201018
tp790
tp791
a((F8.900000000000006
F-17.666666666666664
tp792
(F-18.222637269238618
F-20.14771056369049
F0.07269893805677383
tp793
tp794
a((F8.900000000000006
F0.0
tp795
(F-16.93824807081132
F-18.649844188359253
F0.07421873612571675
tp796
tp797
a((F8.900000000000006
F17.66666666666667
tp798
(F-17.693244628920993
F-19.405181818376153
F0.0711850318386278
tp799
tp800
a((F8.900000000000006
F35.33333333333334
tp801
(F-19.05003578533653
F-20.984753859615964
F0.06966523376968488
tp802
tp803
a((F8.900000000000006
F53.0
tp804
(F-19.58308346019991
F-19.43514849720506
F0.07115558233751143
tp805
tp806
a((F26.700000000000003
F-53.0
tp807
(F-17.672669488762818
F-21.67864365000458
F0.07120858948894727
tp808
tp809
a((F26.700000000000003
F-35.33333333333333
tp810
(F-18.75833295958794
F-20.817444054431466
F0.07421183571599871
tp811
tp812
a((F26.700000000000003
F-17.666666666666664
tp813
(F-19.041795529065364
F-18.705995313272133
F0.06964268467828652
tp814
tp815
a((F26.700000000000003
F0.0
tp816
(F-19.58308346019991
F-19.43514849720506
F0.07115558233751143
tp817
tp818
a((F26.700000000000003
F17.66666666666667
tp819
(F-16.48213436835658
F-20.288674016693168
F0.06818279417049747
tp820
tp821
a((F26.700000000000003
F35.33333333333334
tp822
(F-17.89446808601093
F-19.53108641970378
F0.06663943845123507
tp823
tp824
a((F26.700000000000003
F53.0
tp825
(F-16.207945989599548
F-19.93775074033722
F0.05303192326411442
tp826
tp827
a((F44.5
F-53.0
tp828
(F-15.41688207365107
F-18.90638661041556
F0.0515175303340412
tp829
tp830
a((F44.5
F-35.33333333333333
tp831
(F-14.536967980093605
F-17.874879225348852
F0.05000463267481629
tp832
tp833
a((F44.5
F-17.666666666666664
tp834
(F-15.482069924188808
F-19.03673873404388
F0.046971936946648474
tp835
tp836
a((F44.5
F0.0
tp837
(F42.02934328933184
F-47.23148785583337
F0.05856023490375062
tp838
tp839
a((F44.5
F17.66666666666667
tp840
(F41.96247156820662
F-47.075355142718465
F0.05701699162479998
tp841
tp842
a((F44.5
F35.33333333333334
tp843
(F39.760026195571704
F-44.52615085962088
F0.0585073401926266
tp844
tp845
a((F44.5
F53.0
tp846
(F44.314043968088754
F-46.739805397633035
F0.05396085068662444
tp847
tp848
asS'M5240'
p849
(lp850
(lp851
F0.343
aF-0.0014
aF-0.0005
aF-0.0006
aF0.0005
aF0.0072
aa(lp852
F0.0049
aF0.3424
aF0.0009
aF0.0003
aF-0.0017
aF-0.0047
aa(lp853
F-0.0001
aF-0.0009
aF0.0855
aF0.0007
aF0.0008
aF0.0012
aa(lp854
F0.0026
aF0.0043
aF-0.0065
aF20.1865
aF-0.0904
aF-0.2634
aa(lp855
F0.0043
aF0.0064
aF0.006
aF0.1375
aF21.1264
aF-0.0404
aa(lp856
F-0.0008
aF-0.002
aF0.0008
aF-0.0601
aF0.0344
aF13.6804
aas.