(dp0
S'ForcePlates_plates_3'
p1
(F-87.2889
F0.005429320829969416
tp2
sS'ForcePlates_plates_2'
p3
(F-89.4848
F0.005536604987041576
tp4
sS'ForcePlates_plates_1'
p5
(F-7.41133
F0.005622015588162621
tp6
sS'ForcePlates_plates_0'
p7
(F-18.6655
F0.005511466882422223
tp8
s.