(dp0
S'M5238'
p1
(lp2
(lp3
F0.3374
aF-0.0003
aF-0.0017
aF-0.0726
aF-0.0125
aF0.225
aa(lp4
F0.0021
aF0.3382
aF0.0004
aF0.0098
aF-0.0433
aF-0.0117
aa(lp5
F-0.0005
aF-0.0008
aF0.0847
aF-0.0082
aF-0.0051
aF0.0035
aa(lp6
F0.003
aF0.0026
aF-0.0012
aF19.7556
aF0.0741
aF0.0014
aa(lp7
F0.0026
aF0.0055
aF0.0088
aF-0.0181
aF19.8361
aF0.1955
aa(lp8
F-0.0019
aF0.0002
aF-0.0006
aF0.0638
aF-0.047
aF13.1748
aasS'M5239'
p9
(lp10
(lp11
F0.3482
aF-0.0008
aF-0.0006
aF-0.0782
aF-0.023
aF-0.0396
aa(lp12
F0.0036
aF0.3468
aF0.0009
aF0.0216
aF-0.0857
aF-0.0781
aa(lp13
F-0.0016
aF-0.001
aF0.0871
aF-0.003
aF0.0184
aF0.0192
aa(lp14
F0.0005
aF-0.003
aF-0.0056
aF20.4536
aF-0.428
aF-0.0628
aa(lp15
F-0.003
aF0.0067
aF0.0013
aF0.0971
aF20.4307
aF0.2442
aa(lp16
F0.0051
aF0.002
aF0.0002
aF0.0854
aF0.0779
aF13.5338
aasS'M5170_inv'
p17
(lp18
(lp19
F2.8297
aF0.003
aF0.0308
aF0.0121
aF0.008
aF0.0013
aa(lp20
F-0.024
aF2.8383
aF-0.0143
aF-0.0078
aF0.004
aF0.0101
aa(lp21
F0.033
aF0.024
aF11.3551
aF0.0072
aF0.0053
aF0.0377
aa(lp22
F-0.0001
aF0.0002
aF0.0039
aF0.0487
aF0.0002
aF-0.0004
aa(lp23
F0.0002
aF-0.0001
aF-0.0014
aF-0.0005
aF0.0489
aF-0.0003
aa(lp24
F-0.0004
aF-0.0009
aF-0.0003
aF0.0
aF0.0
aF0.0727
aasS'M5239_inv'
p25
(lp26
(lp27
F2.8717
aF0.0065
aF0.0194
aF0.0109
aF0.0032
aF0.0084
aa(lp28
F-0.0297
aF2.8833
aF-0.0299
aF-0.0033
aF0.012
aF0.0164
aa(lp29
F0.0547
aF0.0326
aF11.4879
aF0.002
aF-0.0101
aF-0.0158
aa(lp30
F-0.0001
aF0.0004
aF0.0032
aF0.0489
aF0.0001
aF0.0002
aa(lp31
F0.0004
aF-0.0009
aF-0.0007
aF-0.0002
aF0.0489
aF-0.0009
aa(lp32
F-0.0011
aF-0.0005
aF-0.0002
aF-0.0003
aF-0.0003
aF0.0739
aasS'M5240_inv'
p33
(lp34
(lp35
F2.9151
aF0.012
aF0.017
aF0.0034
aF-0.0001
aF-0.0014
aa(lp36
F-0.0422
aF2.9202
aF-0.0318
aF-0.0017
aF0.0099
aF0.0395
aa(lp37
F0.0049
aF0.0324
aF11.6915
aF-0.0182
aF-0.0279
aF-0.0266
aa(lp38
F-0.0004
aF-0.0006
aF0.0038
aF0.0495
aF0.0002
aF0.0009
aa(lp39
F-0.0006
aF-0.0009
aF-0.0035
aF-0.0003
aF0.0497
aF0.0001
aa(lp40
F0.0002
aF0.0004
aF-0.0007
aF0.0002
aF-0.0001
aF0.0731
aasS'ForcePlates_plates_0'
p41
(F-17.0186
F0.005596114953154921
tp42
sS'SixAxis_rock1_4'
p43
(F7.07550048828125
F-22.755555555555556
tp44
sS'M5237'
p45
(lp46
(lp47
F0.6789
aF0.0034
aF-0.0013
aF-0.2676
aF0.2778
aF0.0501
aa(lp48
F0.0098
aF0.6808
aF0.0023
aF-0.4103
aF-0.1925
aF0.0485
aa(lp49
F-0.004
aF-0.0045
aF0.1643
aF-0.0228
aF-0.0171
aF0.0114
aa(lp50
F-0.0059
aF-0.0037
aF-0.0029
aF38.7248
aF0.0656
aF-0.0667
aa(lp51
F-0.0037
aF0.0103
aF0.0064
aF0.1106
aF38.6657
aF0.0941
aa(lp52
F0.0024
aF-0.0004
aF0.0008
aF-0.0325
aF-0.0992
aF27.5819
aasS'M5238_inv'
p53
(lp54
(lp55
F2.964
aF0.0025
aF0.061
aF0.0109
aF0.0018
aF-0.0051
aa(lp56
F-0.0188
aF2.9567
aF-0.0161
aF-0.0015
aF0.0064
aF0.0026
aa(lp57
F0.0172
aF0.0281
aF11.8009
aF0.005
aF0.0031
aF-0.0032
aa(lp58
F-0.0004
aF-0.0004
aF0.0008
aF0.0506
aF-0.0002
aF0.0
aa(lp59
F-0.0004
aF-0.0008
aF-0.0052
aF0.0
aF0.0504
aF-0.0007
aa(lp60
F0.0004
aF0.0
aF0.0005
aF-0.0002
aF0.0002
aF0.076
aasS'SixAxis_rock1_5'
p61
(F-5.41168212890625
F-297.8909090909091
tp62
sS'SixAxis_rock1_2'
p63
(F5.82977294921875
F99.2969696969697
tp64
sS'M5170'
p65
(lp66
(lp67
F0.3534
aF-0.0004
aF-0.0009
aF-0.0883
aF-0.0571
aF-0.0063
aa(lp68
F0.003
aF0.3523
aF0.0004
aF0.0555
aF-0.0295
aF-0.0488
aa(lp69
F-0.001
aF-0.0008
aF0.0881
aF-0.013
aF-0.0092
aF-0.0456
aa(lp70
F0.0007
aF-0.0013
aF-0.007
aF20.5413
aF-0.978
aF0.1023
aa(lp71
F-0.0012
aF0.001
aF0.0024
aF0.1935
aF20.4513
aF0.0734
aa(lp72
F0.0021
aF0.0045
aF0.0003
aF0.0003
aF-0.0132
aF13.7464
aasS'SixAxis_rock1_0'
p73
(F9.17816162109375
F-61.82641509433962
tp74
sS'ForcePlates_plates_2'
p75
(F-94.1512
F0.005349604690961362
tp76
sS'ForcePlates_plates_1'
p77
(F-14.5482
F0.00558753175813363
tp78
sS'SixAxis_rock1_3'
p79
(F3.52569580078125
F19.162573099415205
tp80
sS'ForcePlates_plates_3'
p81
(F-91.4063
I1
tp82
sS'M5237_inv'
p83
(lp84
(lp85
F1.4732
aF-0.007
aF0.126
aF0.0101
aF-0.0106
aF-0.0026
aa(lp86
F-0.0211
aF1.4689
aF-0.0209
aF0.0154
aF0.0074
aF-0.0025
aa(lp87
F0.0352
aF0.0399
aF6.0877
aF0.0042
aF0.0026
aF-0.0026
aa(lp88
F0.0002
aF0.0001
aF0.0005
aF0.0256
aF0.0
aF0.0001
aa(lp89
F0.0001
aF-0.0004
aF-0.001
aF-0.0001
aF0.0259
aF-0.0001
aa(lp90
F-0.0001
aF0.0
aF-0.0002
aF0.0
aF0.0001
aF0.0363
aasS'M5240'
p91
(lp92
(lp93
F0.343
aF-0.0014
aF-0.0005
aF-0.0006
aF0.0005
aF0.0072
aa(lp94
F0.0049
aF0.3424
aF0.0009
aF0.0003
aF-0.0017
aF-0.0047
aa(lp95
F-0.0001
aF-0.0009
aF0.0855
aF0.0007
aF0.0008
aF0.0012
aa(lp96
F0.0026
aF0.0043
aF-0.0065
aF20.1865
aF-0.0904
aF-0.2634
aa(lp97
F0.0043
aF0.0064
aF0.006
aF0.1375
aF21.1264
aF-0.0404
aa(lp98
F-0.0008
aF-0.002
aF0.0008
aF-0.0601
aF0.0344
aF13.6804
aasS'SixAxis_rock1_1'
p99
(F4.60540771484375
F-3.1118708452041783
tp100
s.