(dp0
S'M5240_inv'
p1
(lp2
(lp3
F2.9151
aF0.012
aF0.017
aF0.0034
aF-0.0001
aF-0.0014
aa(lp4
F-0.0422
aF2.9202
aF-0.0318
aF-0.0017
aF0.0099
aF0.0395
aa(lp5
F0.0049
aF0.0324
aF11.6915
aF-0.0182
aF-0.0279
aF-0.0266
aa(lp6
F-0.0004
aF-0.0006
aF0.0038
aF0.0495
aF0.0002
aF0.0009
aa(lp7
F-0.0006
aF-0.0009
aF-0.0035
aF-0.0003
aF0.0497
aF0.0001
aa(lp8
F0.0002
aF0.0004
aF-0.0007
aF0.0002
aF-0.0001
aF0.0731
aasS'gridcalibration1466448929'
p9
(lp10
(lp11
(F-44.5
F-53.0
tp12
a(lp13
F-7.685510263920455
aF-9.468847353239237
aaF0.08660305206045527
aa(lp14
(F-44.5
F-35.33333333333333
tp15
a(lp16
F-7.2471495159485135
aF-6.304447781880757
aaF0.12815183460940083
aa(lp17
(F-44.5
F-17.666666666666664
tp18
a(lp19
F-7.082944435353589
aF-3.3213171329982596
aaF0.13259700692499027
aa(lp20
(F-44.5
F0.0
tp21
a(lp22
F-7.799896870189293
aF-0.5917711640353934
aaF0.12169182717814198
aa(lp23
(F-44.5
F17.66666666666667
tp24
a(lp25
F-7.591905257361856
aF2.525411078884324
aaF0.138430410796721
aa(lp26
(F-44.5
F35.33333333333334
tp27
a(lp28
F-7.756886287996646
aF5.716104632926299
aaF0.13976271543009028
aa(lp29
(F-44.5
F53.0
tp30
a(lp31
F-7.431898206185145
aF8.603114171512917
aaF0.11196651020362366
aa(lp32
(F-26.7
F-53.0
tp33
a(lp34
F-4.520747055718189
aF-9.389213157322093
aaF0.14992480242169423
aa(lp35
(F-26.7
F-35.33333333333333
tp36
a(lp37
F-4.494944982019759
aF-6.287719426392051
aaF0.14813134307105888
aa(lp38
(F-26.7
F-17.666666666666664
tp39
a(lp40
F-4.357537534309203
aF-3.4872774183582202
aaF0.12634315710982935
aa(lp41
(F-26.7
F0.0
tp42
a(lp43
F-4.542448366285502
aF-0.25662917254449014
aaF0.12613413897420342
aa(lp44
(F-26.7
F17.66666666666667
tp45
a(lp46
F-5.113490640497542
aF2.415704597696669
aaF0.12753267683009467
aa(lp47
(F-26.7
F35.33333333333334
tp48
a(lp49
F-4.338312297850791
aF5.9446399772349
aaF0.13185142636083852
aa(lp50
(F-26.7
F53.0
tp51
a(lp52
F-4.9372603710504475
aF8.344773320944844
aaF0.10875176302647771
aa(lp53
(F-8.899999999999999
F-53.0
tp54
a(lp55
F-1.86243230874031
aF-9.942766631141179
aaF0.09891989548756379
aa(lp56
(F-8.899999999999999
F-35.33333333333333
tp57
a(lp58
F-1.7598097244039836
aF-6.012327890335322
aaF0.10484977996620912
aa(lp59
(F-8.899999999999999
F-17.666666666666664
tp60
a(lp61
F-1.9411195995993638
aF-3.4269038691703635
aaF0.12470958594493617
aa(lp62
(F-8.899999999999999
F0.0
tp63
a(lp64
F-1.4708337491746801
aF-0.48067357581039
aaF0.1260004322826265
aa(lp65
(F-8.899999999999999
F17.66666666666667
tp66
a(lp67
F-1.7916903871170142
aF2.6961099088541896
aaF0.12885755334077456
aa(lp68
(F-8.899999999999999
F35.33333333333334
tp69
a(lp70
F-1.8584033474936825
aF5.602960560314637
aaF0.11792830969176216
aa(lp71
(F-8.899999999999999
F53.0
tp72
a(lp73
F-1.9708017992065419
aF8.023277406101442
aaF0.0994162676499249
aa(lp74
(F8.900000000000006
F-53.0
tp75
a(lp76
F0.7914421658637419
aF-9.658650937721445
aaF0.10041339324022742
aa(lp77
(F8.900000000000006
F-35.33333333333333
tp78
a(lp79
F0.7615176293118849
aF-5.929355572821431
aaF0.14794463226151422
aa(lp80
(F8.900000000000006
F-17.666666666666664
tp81
a(lp82
F0.9926349016514224
aF-2.9974242585357618
aaF0.12457750646243622
aa(lp83
(F8.900000000000006
F0.0
tp84
a(lp85
F0.966033170852979
aF-0.5857686775427172
aaF0.127454613339345
aa(lp86
(F8.900000000000006
F17.66666666666667
tp87
a(lp88
F0.9852620500956756
aF2.6826470562224474
aaF0.12410708766270961
aa(lp89
(F8.900000000000006
F35.33333333333334
tp90
a(lp91
F1.0898622564752958
aF5.7213642625418215
aaF0.12233783293394769
aa(lp92
(F8.900000000000006
F53.0
tp93
a(lp94
F0.8559056555411773
aF8.635398751438192
aaF0.12822366856268375
aa(lp95
(F26.700000000000003
F-53.0
tp96
a(lp97
F4.176441343973599
aF-9.25374930939319
aaF0.1343162672565961
aa(lp98
(F26.700000000000003
F-35.33333333333333
tp99
a(lp100
F4.015189031480906
aF-6.29869722179775
aaF0.14789549134599958
aa(lp101
(F26.700000000000003
F-17.666666666666664
tp102
a(lp103
F3.9502001963427946
aF-3.19909943903435
aaF0.13832835670980176
aa(lp104
(F26.700000000000003
F0.0
tp105
a(lp106
F3.949190255367561
aF-0.25566232225436397
aaF0.13803521734562513
aa(lp107
(F26.700000000000003
F17.66666666666667
tp108
a(lp109
F4.032465234516637
aF2.663338753658965
aaF0.15457994056673457
aa(lp110
(F26.700000000000003
F35.33333333333334
tp111
a(lp112
F4.163670012404959
aF5.8666310299875155
aaF0.14656328920587977
aa(lp113
(F26.700000000000003
F53.0
tp114
a(lp115
F4.1631418920240755
aF8.662468122178643
aaF0.1462700417182924
aa(lp116
(F44.5
F-53.0
tp117
a(lp118
F7.424223130956752
aF-9.08665499779937
aaF0.11572848429222876
aa(lp119
(F44.5
F-35.33333333333333
tp120
a(lp121
F7.088447165516107
aF-6.070311004768896
aaF0.13546694127791054
aa(lp122
(F44.5
F-17.666666666666664
tp123
a(lp124
F6.9145188688955015
aF-3.21055899325518
aaF0.1336210551715076
aa(lp125
(F44.5
F0.0
tp126
a(lp127
F7.430074855776845
aF-0.37878882891861526
aaF0.13022317968360972
aa(lp128
(F44.5
F17.66666666666667
tp129
a(lp130
F6.840581068990955
aF2.833674069821305
aaF0.15436971850526685
aa(lp131
(F44.5
F35.33333333333334
tp132
a(lp133
F6.955498348946292
aF5.609685109622268
aaF0.14333073471625038
aa(lp134
(F44.5
F53.0
tp135
a(lp136
F7.436717136407723
aF8.84962975714117
aaF0.11100074419133991
aasS'gridcalibration1466604997'
p137
(lp138
sS'gridcalibration1466604995'
p139
(lp140
sS'ForcePlates_plates_0'
p141
(F-18.94
F0.005536592725470818
tp142
sS'M5238_inv'
p143
(lp144
(lp145
F2.964
aF0.0025
aF0.061
aF0.0109
aF0.0018
aF-0.0051
aa(lp146
F-0.0188
aF2.9567
aF-0.0161
aF-0.0015
aF0.0064
aF0.0026
aa(lp147
F0.0172
aF0.0281
aF11.8009
aF0.005
aF0.0031
aF-0.0032
aa(lp148
F-0.0004
aF-0.0004
aF0.0008
aF0.0506
aF-0.0002
aF0.0
aa(lp149
F-0.0004
aF-0.0008
aF-0.0052
aF0.0
aF0.0504
aF-0.0007
aa(lp150
F0.0004
aF0.0
aF0.0005
aF-0.0002
aF0.0002
aF0.076
aasS'gridcalibration1466606549'
p151
(lp152
((F-44.5
F-53.0
tp153
(F-22.249963043181957
F-26.499955984014473
tp154
F0.006079182178368145
tp155
a(g153
(F-90.04038535608825
F-53.0
tp156
F0.003016084610318692
tp157
a(g153
(F-90.04038535608825
F-53.0
tp158
F0.003016084610318692
tp159
a(g153
(F-44.5
F-53.0
tp160
F0.006079178812566952
tp161
a(g153
(F-45.89787254432857
F54.665120345898615
tp162
F0.0014962932729781463
tp163
a(g153
(F43.70048486137619
F51.400099030510596
tp164
F-0.0015572891196273793
tp165
a(g153
(F5799.1438089599915
F-52.99999999999966
tp166
F-2.3504795964784464e-05
tp167
a(g153
(F-45.89787254432857
F54.665120345898615
tp168
F0.0014962932729781463
tp169
a(g153
(F-62.96316253328086
F-31.668313753322515
tp170
F0.007552079729892078
tp171
a(g153
(F-59.601668751547
F-53.00000000000001
tp172
F0.009095263422885644
tp173
a(g153
(F-44.653180575627076
F-41.20192500635627
tp174
F0.01365465089811205
tp175
a(g153
(F-37.08331827684635
F-44.166648734221496
tp176
F0.01823753980350205
tp177
a(g153
(F-52.72760908004974
F-53.0
tp178
F0.016694236938594335
tp179
a(g153
(F-52.041090194756485
F-53.0
tp180
F0.018214031641736093
tp181
a(g153
(F-51.4603154005727
F-52.99999999999999
tp182
F0.01973382634487783
tp183
a(g153
(F-51.4603154005727
F-52.99999999999999
tp184
F0.01973382634487783
tp185
a(g153
(F-52.041090194756485
F-53.0
tp186
F0.018214031641736093
tp187
a(g153
(F-50.962600189875836
F-52.99999999999999
tp188
F0.02125362104801957
tp189
a(g153
(F-44.5
F-47.65357710349197
tp190
F0.030409330024083015
tp191
a(g153
(F-48.60925808768024
F-48.13600234771967
tp192
F0.033425414634401705
tp193
a(g153
(F-51.9774954080609
F-57.41791480159499
tp194
F0.03645156471486193
tp195
a(g153
(F-47.61714155275004
F-49.310339026926194
tp196
F0.044063977556393887
tp197
a(g153
(F-50.68758405051353
F-56.65579885658074
tp198
F0.044050538230570646
tp199
a(g153
(F-49.937282200080475
F-56.212499400038254
tp200
F0.05012916338386505
tp201
a(g153
(F-49.220408204522236
F-52.97330837802441
tp202
F0.05774212652009452
tp203
a(g153
(F-46.52160552494167
F-52.97695660300388
tp204
F0.0668838458756372
tp205
a(g153
(F-48.20771528075784
F-55.187646024354734
tp206
F0.07296246766190422
tp207
a(g153
(F-47.568543373042175
F-54.81051839267001
tp208
F0.08816041469332164
tp209
a(g153
(F-47.19665928968406
F-54.59109735440925
tp210
F0.10031821865918301
tp211
a(g153
(F-48.25968584348131
F-55.971299735009936
tp212
F0.10791774246958923
tp213
a(g153
(F-48.07874384251887
F-54.40048094805964
tp214
F0.11397231253222131
tp215
a(g153
(F-47.985779693647586
F-54.364100998816
tp216
F0.11701190193850479
tp217
a(g153
(F-47.83677922874466
F-55.63707438624053
tp218
F0.12159534113859233
tp219
a(g153
(F-50.16893084556473
F-55.671495193155955
tp220
F0.12002864928383282
tp221
a(g153
(F-48.96775324414404
F-56.97536737398545
tp222
F0.12155784672210676
tp223
a(g153
(F-48.607791379357685
F-55.42535613088858
tp224
F0.13220984560534718
tp225
a(g153
(F-49.26411017141883
F-55.24509660980754
tp226
F0.14282501617168636
tp227
a(g153
(F-47.19527128734873
F-52.96927778168371
tp228
F0.050166657800350616
tp229
a(g153
(F-44.5
F-53.0
tp230
F0.003039589406283476
tp231
a(g153
(F-136.2961517762459
F-53.00000000000001
tp232
F0.0014962899071769536
tp233
a(g153
(F5799.1438089599915
F-52.99999999999966
tp234
F-2.3504795964784464e-05
tp235
a(g153
(F-44.5
F-53.0
tp236
F0.004559384109425214
tp237
a(g153
(F-44.5
F-53.0
tp238
F0.004559384109425214
tp239
a(g153
(F-47.32469307469654
F-56.385253324938766
tp240
F0.04715040116253691
tp241
a(g153
(F-47.7684007129607
F-54.924945576937574
tp242
F0.08211911193147019
tp243
a(g153
(F-45.71366282886551
F-54.46394695886814
tp244
F0.10797851680141611
tp245
a(g153
(F-44.46620070606881
F-52.97592792906408
tp246
F0.12317535987886344
tp247
a(g153
(F-43.5787280018642
F-52.980695305171295
tp248
F0.1535940364179228
tp249
a(g153
(F-45.29067880537193
F-52.972811426045325
tp250
F0.16574304416350544
tp251
a(g153
(F-44.47555376227761
F-52.027924845726275
tp252
F0.1703018779782331
tp253
a(g153
(F-44.48001283066301
F-52.205234321232126
tp254
F0.20829563823823152
tp255
a(g153
(F-45.09445139345844
F-52.979558974436024
tp256
F0.22045454615806298
tp257
a(g153
(F-45.03871113638454
F-52.31314606632321
tp258
F0.24326490266643738
tp259
a(g153
(F-44.47662989974744
F-52.9832547524322
tp260
F0.2691102054755507
tp261
a(g153
(F-44.47622712925829
F-52.982966157540396
tp262
F0.2645508213661254
tp263
a(g153
(F-44.47727164278524
F-52.983714576991225
tp264
F0.27670862533198687
tp265
a(g153
(F-44.47622712925829
F-52.982966157540396
tp266
F0.2645508213661254
tp267
a(g153
(F-45.010062161973366
F-52.98246081377411
tp268
F0.2569285117149196
tp269
a(g153
(F-44.48340342352274
F-52.340057156329735
tp270
F0.2508493362669277
tp271
a(g153
(F-44.48379519741779
F-52.988458837097156
tp272
F0.2569139717997012
tp273
a(g153
(F-44.987015633573336
F-52.98325330022694
tp274
F0.2690868693400535
tp275
a(g153
(F-44.47856657346841
F-52.98464242645009
tp276
F0.29342636706654596
tp277
a(g153
(F-44.47856657346841
F-52.98464242645009
tp278
F0.29342636706654596
tp279
a(g153
(F-44.93503442571839
F-53.52819649829305
tp280
F0.29646595310702817
tp281
a(g153
(F-44.47878632489283
F-52.98479988371238
tp282
F0.2964659564728295
tp283
a(g153
(F-44.96348113327621
F-53.559061198394545
tp284
F0.2827504783885358
tp285
a(g153
(F-44.47595081314933
F-52.982768170300226
tp286
F0.261511231959842
tp287
a(g153
(F-44.47446699496459
F-52.98170497833355
tp288
F0.24631383858769712
tp289
a(g153
(F-45.224322577711085
F-53.87369392030477
tp290
F0.18092700157440197
tp291
a(g153
(F-45.66794785608493
F-52.97399815944553
tp292
F0.11403369674347665
tp293
a(g153
(F-42.89133327514599
F-51.10705103208059
tp294
F0.08670195134830669
tp295
a(g153
(F-46.251854295263634
F-55.09950972407386
tp296
F0.07602539320368484
tp297
a(g153
(F-44.468931956526426
F-52.97747626612856
tp298
F0.06842697671427607
tp299
a(g153
(F-46.804707996861126
F-55.76207722505401
tp300
F0.05778841042525653
tp301
a(g153
(F-44.43346817059426
F-52.95176570353425
tp302
F0.031953011157419414
tp303
a(g153
(F-50.431185838365344
F-60.06410897603064
tp304
F0.022796917182551075
tp305
a(g153
(F-50.060486672175834
F-59.622602103939755
tp306
F0.024316711885692812
tp307
a(g153
(F-49.44012843282558
F-52.94368963712998
tp308
F0.02737029091249707
tp309
a((F-44.5
F-35.33333333333333
tp310
(F-44.5
F-53.0
tp311
F0.003039589406283476
tp312
a(g310
(F-44.5
F-53.0
tp313
F0.003039589406283476
tp314
a(g310
(F-44.5
F-53.0
tp315
F0.003039589406283476
tp316
a(g310
(F-44.5
F-29.276145098127166
tp317
F0.013706131569317277
tp318
a(g310
(F-44.5
F-32.976610695164204
tp319
F0.02435868411183032
tp320
a(g310
(F-44.5
F-31.643727322370424
tp321
F0.0532896346350616
tp322
a(g310
(F-46.47346073297776
F-33.99510165383933
tp323
F0.06851555244654477
tp324
a(g310
(F-47.616853944712254
F-34.234667898544096
tp325
F0.08679394706023566
tp326
a(g310
(F-47.15167998581651
F-33.84804995565696
tp327
F0.10201987333269477
tp328
a(g310
(F-46.90099015798178
F-34.215714141591484
tp329
F0.11267187221593516
tp330
a(g310
(F-46.83791927333063
F-34.70915286839826
tp331
F0.11571146162221864
tp332
a(g310
(F-47.428443092762954
F-35.36623577863812
tp333
F0.13855034766633229
tp334
a(g310
(F-47.65717723036039
F-35.01645437440351
tp335
F0.17201773116229657
tp336
a(g310
(F-47.33131070446961
F-34.3301579611644
tp337
F0.19181591874975562
tp338
a(g310
(F-47.16235400251244
F-34.64696877600991
tp339
F0.20398882475108387
tp340
a(g310
(F-46.99473789917987
F-34.30904440337312
tp341
F0.21769439756472778
tp342
a(g310
(F-47.42161741045142
F-34.13290281188211
tp343
F0.23289637782226125
tp344
a(g310
(F-47.151794854192616
F-35.43873425809184
tp345
F0.20401232618124748
tp346
a(g310
(F-47.74340857089359
F-35.49622965261974
tp347
F0.16744435743235048
tp348
a(g310
(F-45.55390416870007
F-36.252319598666446
tp349
F0.12637336067970797
tp350
a(g310
(F-42.84734468800649
F-36.489987770771236
tp351
F0.16749602094515836
tp352
a(g310
(F-42.25218919274224
F-37.108963857284785
tp353
F0.18425120087604718
tp354
a(g310
(F-41.894703947544016
F-36.09636948699048
tp355
F0.2116863027110623
tp356
a(g310
(F-42.14826541743291
F-36.35521472528081
tp357
F0.2345100900842841
tp358
a(g310
(F-42.16355223285506
F-35.77438528787871
tp359
F0.23604443316362017
tp360
a(g310
(F-43.30311843850251
F-36.239599162130496
tp361
F0.23298089437538372
tp362
a(g310
(F-43.25436791479254
F-35.556926502846835
tp363
F0.22386267981580582
tp364
a(g310
(F-43.77967219019152
F-35.604901737396666
tp365
F0.19644095772188302
tp366
a(g310
(F-41.27948471030592
F-33.939199811057115
tp367
F0.08529296455896065
tp368
a(g310
(F-42.31013853909968
F-36.26800251250227
tp369
F0.12640671279679316
tp370
a(g310
(F-42.52435536866636
F-35.58404439239641
tp371
F0.1401128443661104
tp372
a(g310
(F-42.84734468800649
F-36.489987770771236
tp373
F0.16749602094515836
tp374
a(g310
(F-43.18259267395438
F-35.970337353567125
tp375
F0.21011966707645865
tp376
a(g310
(F-43.91546555738138
F-36.869323166961145
tp377
F0.24207621401842522
tp378
a(g310
(F-42.733751233689574
F-36.35355424415039
tp379
F0.23448669772863104
tp380
a(g310
(F-44.48332654473752
F-35.40822728855042
tp381
F0.24969270784525327
tp382
a(g310
(F-44.4830144862724
F-36.40560424789052
tp383
F0.24510534449478644
tp384
a(g310
(F-44.483427416424774
F-35.51465464672136
tp385
F0.251212502548395
tp386
a(g310
(F-44.482692577316456
F-36.091107748296416
tp387
F0.24054651404463379
tp388
a(g310
(F-45.683246303192284
F-36.495217903848044
tp389
F0.22683203257039938
tp390
a(g310
(F-45.54126639390999
F-35.182060320755504
tp391
F0.12790714500337055
tp392
a(g310
(F-48.36270960183125
F-36.70847083218709
tp393
F0.07003479012338658
tp394
a(g310
(F-44.50000000000001
F-29.276145098126943
tp395
F0.02741226313863465
tp396
a((F-44.5
F-17.666666666666664
tp397
(F-40.21311766524913
F-17.47639714757818
tp398
F0.032036952245119495
tp399
a(g397
(F-44.5
F-10.366685360850967
tp400
F0.007626952756750325
tp401
a(g397
(F-44.50000000000001
F-17.450502428073683
tp402
F0.004573373729945991
tp403
a(g397
(F-14.924037794368203
F17.7747747101741
tp404
F0.0045733770957471845
tp405
a(g397
(F-22.097459453934515
F0.04014106958876082
tp406
F0.006130494189105723
tp407
a(g397
(F-51.31934208136175
F-20.12369435131413
tp408
F0.01982782953814425
tp409
a(g397
(F-40.5861622876384
F-15.934470943547048
tp410
F0.035090531271923825
tp411
a(g397
(F-41.68623358246911
F-16.36098861874376
tp412
F0.04880954004681593
tp413
a(g397
(F-44.4683192443586
F-19.058178108396184
tp414
F0.06710358526129769
tp415
a(g397
(F-41.77149886070014
F-15.857025378666496
tp416
F0.10067333031642145
tp417
a(g397
(F-42.22016317887995
F-16.567632586595412
tp418
F0.12048550752440146
tp419
a(g397
(F-42.62899692415891
F-17.82560684674533
tp420
F0.14794908267499987
tp421
a(g397
(F-42.8794599752949
F-17.775278022657215
tp422
F0.1708153976654576
tp423
a(g397
(F-43.124931543839665
F-17.457894553416025
tp424
F0.20130866031626482
tp425
a(g397
(F-44.47992573631086
F-17.709625901665202
tp426
F0.20739192520807637
tp427
a(g397
(F-43.83724326662102
F-16.6834398258908
tp428
F0.21044606126118062
tp429
a(g397
(F-45.11944148868472
F-16.691348132208876
tp430
F0.2150088653502662
tp431
a(g397
(F-45.14217785724526
F-16.142567359719713
tp432
F0.20739645587330913
tp433
a(g397
(F-45.14691845533136
F-15.87048343053747
tp434
F0.20587666117016745
tp435
a(g397
(F-45.12832413348518
F-16.170690630869213
tp436
F0.21196927594398268
tp437
a(g397
(F-45.07083753733573
F-16.056386102268768
tp438
F0.23331579113489778
tp439
a(g397
(F-45.102332701098355
F-16.223631684733196
tp440
F0.22111602340387476
tp441
a(g397
(F-45.059861979769416
F-16.08302545951779
tp442
F0.23788972362051725
tp443
a(g397
(F-45.24009898878927
F-15.943129648758134
tp444
F0.1799562134936328
tp445
a(g397
(F-43.07052834784949
F-15.772108512908831
tp446
F0.09607650801066656
tp447
a(g397
(F-48.9340232248927
F-20.960380674942872
tp448
F0.03049437170117815
tp449
a(g397
(F-44.5
F-17.450502428073072
tp450
F0.009146747459892062
tp451
a(g397
(F-44.5
F-22.515680747660554
tp452
F0.010666542163033801
tp453
a(g397
(F-35.62449181395864
F-10.42483938300446
tp454
F0.015239919258781064
tp455
a((F-26.7
F-17.666666666666664
tp456
(F0.06802405867275041
F-0.0809590883549652
tp457
F0.006116507934386058
tp458
a(g456
(F0.06802405867275041
F-0.0809590883549652
tp459
F0.006116507934386058
tp460
a(g456
(F4.927573010771252e-05
F5.868794821535297e-05
tp461
F0.0030395927720846686
tp462
a(g456
(F-44.49999999999997
F11568.554570822494
tp463
F-1.3989620520856762e-05
tp464
a(g456
(F-44.49999999999997
F11568.554570822494
tp465
F-1.3989620520856762e-05
tp466
a(g456
(F-22.130537928091602
F-17.59502219530948
tp467
F0.01832629337637058
tp468
a(g456
(F-24.595997017994733
F-17.576995440182444
tp469
F0.027496376971759783
tp470
a(g456
(F-24.280259551575504
F-18.720767873934395
tp471
F0.04734196761215546
tp472
a(g456
(F-29.271774793607847
F-14.537593229139018
tp473
F0.07174206519567604
tp474
a(g456
(F-27.125924668156664
F-18.09040399532049
tp475
F0.10228693686973489
tp476
a(g456
(F-25.547387331180147
F-16.740314291482296
tp477
F0.1297832133092703
tp478
a(g456
(F-26.005145747294367
F-16.984837492650186
tp479
F0.18475129382172334
tp480
a(g456
(F-24.757228730293694
F-17.838291433744768
tp481
F0.20764654606892013
tp482
a(g456
(F-25.49525594764004
F-16.60388023006914
tp483
F0.22293733102307717
tp484
a(g456
(F-26.260793576121777
F-15.765595753625243
tp485
F0.2397104809462483
tp486
a(g456
(F-26.719299624934877
F-15.524329386925306
tp487
F0.23816723766729767
tp488
a(g456
(F-26.717778877885426
F-16.39374611163942
tp489
F0.23054028154474604
tp490
a(g456
(F-27.482446250314823
F-15.172775808507541
tp491
F0.2488477694508523
tp492
a(g456
(F-26.93117561041731
F-15.827524498646481
tp493
F0.24885722840614044
tp494
a(g456
(F-26.260793576121777
F-15.765595753625243
tp495
F0.2397104809462483
tp496
a(g456
(F-27.082127556573266
F-15.900833746929488
tp497
F0.2274772435626537
tp498
a(g456
(F-28.47858006315896
F-15.588141679412757
tp499
F0.2473045228061005
tp500
a(g456
(F-27.62802501125155
F-15.335698959837927
tp501
F0.2671496193719546
tp502
a(g456
(F-28.288360800018392
F-14.468201574016469
tp503
F0.2274583256520776
tp504
a(g456
(F-28.703847223626898
F-15.470996629600736
tp505
F0.1557170918506523
tp506
a(g456
(F-24.994247317992553
F-14.361056466697477
tp507
F0.0839606502249666
tp508
a(g456
(F-26.616842786219514
F-16.556946314807387
tp509
F0.05341118829971796
tp510
a(g456
(F-22.30104802549871
F0.12171465035659168
tp511
F0.006093171798888922
tp512
a(g456
(F44.5
F53.0
tp513
F0.0015197980689429307
tp514
asS'M5170'
p515
(lp516
(lp517
F0.3534
aF-0.0004
aF-0.0009
aF-0.0883
aF-0.0571
aF-0.0063
aa(lp518
F0.003
aF0.3523
aF0.0004
aF0.0555
aF-0.0295
aF-0.0488
aa(lp519
F-0.001
aF-0.0008
aF0.0881
aF-0.013
aF-0.0092
aF-0.0456
aa(lp520
F0.0007
aF-0.0013
aF-0.007
aF20.5413
aF-0.978
aF0.1023
aa(lp521
F-0.0012
aF0.001
aF0.0024
aF0.1935
aF20.4513
aF0.0734
aa(lp522
F0.0021
aF0.0045
aF0.0003
aF0.0003
aF-0.0132
aF13.7464
aasS'ForcePlates_plates_3'
p523
(F-81.799
F0.005587556734654195
tp524
sS'ForcePlates_plates_2'
p525
(F-89.4848
F0.005536604987041576
tp526
sS'ForcePlates_plates_1'
p527
(F-6.86235
F0.005622015588162621
tp528
sS'gridcalibration1466187461'
p529
(lp530
(lp531
(F-44.5
F-53.0
tp532
a(lp533
F-44.47838840649936
aF-53.03240926078535
aaF0.28895880770036947
aa(lp534
(F-44.5
F-35.33333333333333
tp535
a(lp536
F-45.80539026926937
aF-35.16193900298499
aaF0.30925959371284395
aa(lp537
(F-44.5
F-17.666666666666664
tp538
a(lp539
F-44.95381918061733
aF-16.95595553125638
aaF0.29346579811356577
aa(lp540
(F-44.5
F0.0
tp541
a(lp542
F-45.4011022784636
aF0.6522056059898962
aaF0.30021459576497156
aa(lp543
(F-44.5
F17.66666666666667
tp544
a(lp545
F-45.49274828965165
aF18.475348868907325
aaF0.4087502226270727
aa(lp546
(F-44.5
F35.33333333333334
tp547
a(lp548
F-45.511545373953744
aF36.701940624665035
aaF0.4032174122889132
aa(lp549
(F-44.5
F53.0
tp550
a(lp551
F-44.08443448588821
aF52.5098039510894
aaF0.32046789236077483
aa(lp552
(F-26.7
F-53.0
tp553
a(lp554
F-27.139538594593684
aF-54.2943242516972
aaF0.4906262391700617
aa(lp555
(F-26.7
F-35.33333333333333
tp556
a(lp557
F-27.590868099691395
aF-35.97631918305138
aaF0.372650156163705
aa(lp558
(F-26.7
F-17.666666666666664
tp559
a(lp560
F-27.542768067818184
aF-18.021281955342097
aaF0.3626320410179159
aa(lp561
(F-26.7
F0.0
tp562
a(lp563
F-27.84644220811567
aF0.3838019998800898
aaF0.30289242928578647
aa(lp564
(F-26.7
F17.66666666666667
tp565
a(lp566
F-28.181667471188
aF17.87967341804944
aaF0.2750637719590193
aa(lp567
(F-26.7
F35.33333333333334
tp568
a(lp569
F-27.613625693821902
aF37.71871463539772
aaF0.33728305879856724
aa(lp570
(F-26.7
F53.0
tp571
a(lp572
F-27.75694930063473
aF52.978495200504646
aaF0.2991551436340988
aa(lp573
(F-8.899999999999999
F-53.0
tp574
a(lp575
F-8.20922529477143
aF-52.32694061365422
aaF0.4879814344997806
aa(lp576
(F-8.899999999999999
F-35.33333333333333
tp577
a(lp578
F-8.365377321156803
aF-35.32746460391456
aaF0.47764634919874294
aa(lp579
(F-8.899999999999999
F-17.666666666666664
tp580
a(lp581
F-8.622795240352529
aF-16.01854329311413
aaF0.5293942142376967
aa(lp582
(F-8.899999999999999
F0.0
tp583
a(lp584
F-9.205250063431475
aF0.9912238590199428
aaF0.5098810781362284
aa(lp585
(F-8.899999999999999
F17.66666666666667
tp586
a(lp587
F-10.361335205346927
aF19.169414434940535
aaF0.45411978812876586
aa(lp588
(F-8.899999999999999
F35.33333333333334
tp589
a(lp590
F-10.58696195404431
aF36.599873079828434
aaF0.4439407150099396
aa(lp591
(F-8.899999999999999
F53.0
tp592
a(lp593
F-11.117408118472284
aF54.5750510471923
aaF0.4052375641842111
aa(lp594
(F8.900000000000006
F-53.0
tp595
a(lp596
F7.457570378588087
aF-51.8491953901336
aaF0.42538852900262725
aa(lp597
(F8.900000000000006
F-35.33333333333333
tp598
a(lp599
F8.165001830119053
aF-33.913807463489064
aaF0.37703663772927065
aa(lp600
(F8.900000000000006
F-17.666666666666664
tp601
a(lp602
F8.508833847799693
aF-15.28251731161842
aaF0.4278222573041527
aa(lp603
(F8.900000000000006
F0.0
tp604
a(lp605
F7.961951693197526
aF2.933734427735135
aaF0.43120438796271354
aa(lp606
(F8.900000000000006
F17.66666666666667
tp607
a(lp608
F7.403727190147642
aF20.841412088740988
aaF0.34827843018603294
aa(lp609
(F8.900000000000006
F35.33333333333334
tp610
a(lp611
F6.864809026368358
aF39.686326494243694
aaF0.2929443747331687
aa(lp612
(F8.900000000000006
F53.0
tp613
a(lp614
F7.054178078104113
aF57.400666189364735
aaF0.293723974311619
aa(lp615
(F26.700000000000003
F-53.0
tp616
a(lp617
F25.213168001464084
aF-51.24251180083596
aaF0.3702088445190873
aa(lp618
(F26.700000000000003
F-35.33333333333333
tp619
a(lp620
F27.193715470930503
aF-34.0393180540762
aaF0.3725176643281534
aa(lp621
(F26.700000000000003
F-17.666666666666664
tp622
a(lp623
F25.04209465912121
aF-15.238876774654406
aaF0.3438244656585088
aa(lp624
(F26.700000000000003
F0.0
tp625
a(lp626
F25.04837707172225
aF2.7710571519798295
aaF0.30178335733594885
aa(lp627
(F26.700000000000003
F17.66666666666667
tp628
a(lp629
F24.54362144248662
aF21.313530022467496
aaF0.29334586448045563
aa(lp630
(F26.700000000000003
F35.33333333333334
tp631
a(lp632
F24.90520326248819
aF40.1264616120334
aaF0.30470884696566725
aa(lp633
(F26.700000000000003
F53.0
tp634
a(lp635
F24.538263840339827
aF56.86826800906148
aaF0.2918596677399308
aa(lp636
(F44.5
F-53.0
tp637
a(lp638
F44.47861908008052
aF-52.389661986848424
aaF0.27929365857899163
aa(lp639
(F44.5
F-35.33333333333333
tp640
a(lp641
F44.5
aF-34.05843153967344
aaF0.32318181941929464
aa(lp642
(F44.5
F-17.666666666666664
tp643
a(lp644
F44.07465450968776
aF-14.6207938424575
aaF0.2976883921827243
aa(lp645
(F44.5
F0.0
tp646
a(lp647
F44.52834551090223
aF2.7024892597600374
aaF0.28320098252885567
aa(lp648
(F44.5
F17.66666666666667
tp649
a(lp650
F43.27745372498394
aF20.311456866523866
aaF0.3205624753968642
aa(lp651
(F44.5
F35.33333333333334
tp652
a(lp653
F43.62445705141546
aF39.594767758710056
aaF0.2938229003514212
aa(lp654
(F44.5
F53.0
tp655
a(lp656
F43.163169068564066
aF54.64110045829023
aaF0.29315783394195516
aasS'gridcalibration1466604996'
p657
(lp658
sS'gridcalibration1466176296.83'
p659
(lp660
((F-44.5
F-53.0
tp661
(F5.814328800658145
F-4.21025200253915
F0.062285739667423935
tp662
tp663
a((F-44.5
F-35.33333333333333
tp664
(F5.814328800658145
F-4.21025200253915
F0.062285739667423935
tp665
tp666
a((F-44.5
F-17.666666666666664
tp667
(F5.800110941272826
F-1.6049258060223914
F0.062262856658975047
tp668
tp669
a((F-44.5
F0.0
tp670
(F6.091903216870982
F-1.6932756141061374
F0.05923016093080721
tp671
tp672
a((F-44.5
F17.66666666666667
tp673
(F6.735791270380583
F-2.8475484880503097
F0.06380553773636687
tp674
tp675
a((F-44.5
F35.33333333333334
tp676
(F4.707101709276147
F-2.059230980053296
F0.09413642446440396
tp677
tp678
a((F-44.5
F53.0
tp679
(F3.4603588551572044
F-2.542162972184064
F0.11081548912029612
tp680
tp681
a((F-26.7
F-53.0
tp682
(F3.9209390208097994
F-3.1470033012715324
F0.1153914281274146
tp683
tp684
a((F-26.7
F-35.33333333333333
tp685
(F4.307215115520371
F-3.1425379007141867
F0.08655088996720417
tp686
tp687
a((F-26.7
F-17.666666666666664
tp688
(F12.024878481917963
F-3.0464121270517497
F0.028899707208351888
tp689
tp690
a((F-26.7
F0.0
tp691
(F-74.8033886323634
F17.085280819272803
F-0.004463594147073597
tp692
tp693
a((F-26.7
F17.66666666666667
tp694
(F-335.69213457362645
F55.329706253022245
F-0.0014006652394917916
tp695
tp696
a((F-26.7
F35.33333333333334
tp697
(F-33.0735423935563
F12.712945750748217
F-0.012020230289845255
tp698
tp699
a((F-26.7
F53.0
tp700
(F19.480653415240248
F37.572606951229865
F0.021206152940439215
tp701
tp702
a((F-8.899999999999999
F-53.0
tp703
(F6.394298697254719
F38.62777985514548
F0.04530271802214746
tp704
tp705
a((F-8.899999999999999
F-35.33333333333333
tp706
(F6.159242714852914
F41.93873059024958
F0.058863102638168456
tp707
tp708
a((F-8.899999999999999
F-17.666666666666664
tp709
(F5.624805705798472
F37.98281459461065
F0.06492944643326934
tp710
tp711
a((F-8.899999999999999
F0.0
tp712
(F6.820608736512169
F40.15334720622159
F0.06341654877404444
tp713
tp714
a((F-8.899999999999999
F17.66666666666667
tp715
(F20.571154482908103
F53.00000000000001
F0.01662943025502308
tp716
tp717
a((F-8.899999999999999
F35.33333333333334
tp718
(F-182.66836899319495
F-56.18872115741429
F-0.002936895668412654
tp719
tp720
a((F-8.899999999999999
F53.0
tp721
(F-329.4625363164801
F-59.57651295476719
F-0.0014239980091877353
tp722
tp723
a((F8.900000000000006
F-53.0
tp724
(F-12.05431072151981
F-17.86816969671593
F0.054580627902090645
tp725
tp726
a((F8.900000000000006
F-35.33333333333333
tp727
(F-17.276418263840036
F-18.753599386051256
F0.06512654079201018
tp728
tp729
a((F8.900000000000006
F-17.666666666666664
tp730
(F-18.222637269238618
F-20.14771056369049
F0.07269893805677383
tp731
tp732
a((F8.900000000000006
F0.0
tp733
(F-16.93824807081132
F-18.649844188359253
F0.07421873612571675
tp734
tp735
a((F8.900000000000006
F17.66666666666667
tp736
(F-17.693244628920993
F-19.405181818376153
F0.0711850318386278
tp737
tp738
a((F8.900000000000006
F35.33333333333334
tp739
(F-19.05003578533653
F-20.984753859615964
F0.06966523376968488
tp740
tp741
a((F8.900000000000006
F53.0
tp742
(F-19.58308346019991
F-19.43514849720506
F0.07115558233751143
tp743
tp744
a((F26.700000000000003
F-53.0
tp745
(F-17.672669488762818
F-21.67864365000458
F0.07120858948894727
tp746
tp747
a((F26.700000000000003
F-35.33333333333333
tp748
(F-18.75833295958794
F-20.817444054431466
F0.07421183571599871
tp749
tp750
a((F26.700000000000003
F-17.666666666666664
tp751
(F-19.041795529065364
F-18.705995313272133
F0.06964268467828652
tp752
tp753
a((F26.700000000000003
F0.0
tp754
(F-19.58308346019991
F-19.43514849720506
F0.07115558233751143
tp755
tp756
a((F26.700000000000003
F17.66666666666667
tp757
(F-16.48213436835658
F-20.288674016693168
F0.06818279417049747
tp758
tp759
a((F26.700000000000003
F35.33333333333334
tp760
(F-17.89446808601093
F-19.53108641970378
F0.06663943845123507
tp761
tp762
a((F26.700000000000003
F53.0
tp763
(F-16.207945989599548
F-19.93775074033722
F0.05303192326411442
tp764
tp765
a((F44.5
F-53.0
tp766
(F-15.41688207365107
F-18.90638661041556
F0.0515175303340412
tp767
tp768
a((F44.5
F-35.33333333333333
tp769
(F-14.536967980093605
F-17.874879225348852
F0.05000463267481629
tp770
tp771
a((F44.5
F-17.666666666666664
tp772
(F-15.482069924188808
F-19.03673873404388
F0.046971936946648474
tp773
tp774
a((F44.5
F0.0
tp775
(F42.02934328933184
F-47.23148785583337
F0.05856023490375062
tp776
tp777
a((F44.5
F17.66666666666667
tp778
(F41.96247156820662
F-47.075355142718465
F0.05701699162479998
tp779
tp780
a((F44.5
F35.33333333333334
tp781
(F39.760026195571704
F-44.52615085962088
F0.0585073401926266
tp782
tp783
a((F44.5
F53.0
tp784
(F44.314043968088754
F-46.739805397633035
F0.05396085068662444
tp785
tp786
asS'M5240'
p787
(lp788
(lp789
F0.343
aF-0.0014
aF-0.0005
aF-0.0006
aF0.0005
aF0.0072
aa(lp790
F0.0049
aF0.3424
aF0.0009
aF0.0003
aF-0.0017
aF-0.0047
aa(lp791
F-0.0001
aF-0.0009
aF0.0855
aF0.0007
aF0.0008
aF0.0012
aa(lp792
F0.0026
aF0.0043
aF-0.0065
aF20.1865
aF-0.0904
aF-0.2634
aa(lp793
F0.0043
aF0.0064
aF0.006
aF0.1375
aF21.1264
aF-0.0404
aa(lp794
F-0.0008
aF-0.002
aF0.0008
aF-0.0601
aF0.0344
aF13.6804
aasS'gridcalibration1466177036.0'
p795
(lp796
(lp797
(F-44.5
F-53.0
tp798
a(lp799
F-3.4361412664247593
aF27.359522292152704
aF0.06942507361645052
aaa(lp800
(F-44.5
F-35.33333333333333
tp801
a(lp802
F-3.4361412664247593
aF27.359522292152704
aF0.06942507361645052
aaa(lp803
(F-44.5
F-17.666666666666664
tp804
a(lp805
F-3.4361412664247593
aF27.359522292152704
aF0.06942507361645052
aaa(lp806
(F-44.5
F0.0
tp807
a(lp808
F-3.4361412664247593
aF27.359522292152704
aF0.06942507361645052
aaa(lp809
(F-44.5
F17.66666666666667
tp810
a(lp811
F-3.821828821005219
aF27.495520003145327
aF0.06338204672545436
aaa(lp812
(F-44.5
F35.33333333333334
tp813
a(lp814
F-2.4092417429136397
aF27.908798759660694
aF0.07094487168539346
aaa(lp815
(F-44.5
F53.0
tp816
a(lp817
F-3.275255555916389
aF28.425048116021653
aF0.07243522025322008
aaa(lp818
(F-26.7
F-53.0
tp819
a(lp820
F-4.118668764153057
aF26.759180637922217
aF0.07394811791244499
aaa(lp821
(F-26.7
F-35.33333333333333
tp822
a(lp823
F-3.2597600185137154
aF26.175323078059822
aF0.07245872168338366
aaa(lp824
(F-26.7
F-17.666666666666664
tp825
a(lp826
F-3.611944987728547
aF26.19762918498971
aF0.06641546991176399
aaa(lp827
(F-26.7
F0.0
tp828
a(lp829
F0.43673136156459946
aF29.165140748634293
aF0.05436540763458185
aaa(lp830
(F-26.7
F17.66666666666667
tp831
a(lp832
F-1.0160878365851997
aF28.808585723693746
aF0.04680181486193638
aaa(lp833
(F-26.7
F35.33333333333334
tp834
a(lp835
F-1.1158574128701315
aF27.145719080931936
aF0.04379166822516683
aaa(lp836
(F-26.7
F53.0
tp837
a(lp838
F-0.9069533162334461
aF26.998599331506668
aF0.04983546292886944
aaa(lp839
(F-8.899999999999999
F-53.0
tp840
a(lp841
F-3.178800893119096
aF26.92678918263887
aF0.05584885579269051
aaa(lp842
(F-8.899999999999999
F-35.33333333333333
tp843
a(lp844
F-2.0458965318004627
aF26.21193930202034
aF0.05435850722486389
aaa(lp845
(F-8.899999999999999
F-17.666666666666664
tp846
a(lp847
F-2.0458965318004627
aF26.21193930202034
aF0.05435850722486389
aaa(lp848
(F-8.899999999999999
F0.0
tp849
a(lp850
F-0.9283764505609419
aF30.27047764947973
aF0.049811961498705856
aaa(lp851
(F-8.899999999999999
F17.66666666666667
tp852
a(lp853
F-2.194146094668047
aF30.93077756655071
aF0.05130231006653248
aaa(lp854
(F-8.899999999999999
F35.33333333333334
tp855
a(lp856
F0.4368116384326979
aF27.76807996032619
aF0.051355260997812374
aaa(lp857
(F-8.899999999999999
F53.0
tp858
a(lp859
F-0.9283764505609419
aF30.27047764947973
aF0.049811961498705856
aaa(lp860
(F8.900000000000006
F-53.0
tp861
a(lp862
F-3.406002113056345
aF28.52657085441022
aF0.052815207725757374
aaa(lp863
(F8.900000000000006
F-35.33333333333333
tp864
a(lp865
F-0.9069533162334461
aF26.998599331506668
aF0.04983546292886944
aaa(lp866
(F8.900000000000006
F-17.666666666666664
tp867
a(lp868
F-0.9283764505609419
aF30.27047764947973
aF0.049811961498705856
aaa(lp869
(F8.900000000000006
F0.0
tp870
a(lp871
F-1.9157043299394274
aF27.61751508928013
aF0.05736865386163337
aaa(lp872
(F8.900000000000006
F17.66666666666667
tp873
a(lp874
F-3.178800893119096
aF26.92678918263887
aF0.05584885579269051
aaa(lp875
(F8.900000000000006
F35.33333333333334
tp876
a(lp877
F-4.533775863609243
aF29.198213731609606
aF0.054305556293583995
aaa(lp878
(F8.900000000000006
F53.0
tp879
a(lp880
F-1.9157043299394274
aF27.61751508928013
aF0.05736865386163337
aaa(lp881
(F26.700000000000003
F-53.0
tp882
a(lp883
F-3.178800893119096
aF26.92678918263887
aF0.05584885579269051
aaa(lp884
(F26.700000000000003
F-35.33333333333333
tp885
a(lp886
F-3.178800893119096
aF26.92678918263887
aF0.05584885579269051
aaa(lp887
(F26.700000000000003
F-17.666666666666664
tp888
a(lp889
F-3.178800893119096
aF26.92678918263887
aF0.05584885579269051
aaa(lp890
(F26.700000000000003
F0.0
tp891
a(lp892
F-3.406002113056345
aF28.52657085441022
aF0.052815207725757374
aaa(lp893
(F26.700000000000003
F17.66666666666667
tp894
a(lp895
F-3.178800893119096
aF26.92678918263887
aF0.05584885579269051
aaa(lp896
(F26.700000000000003
F35.33333333333334
tp897
a(lp898
F-3.178800893119096
aF26.92678918263887
aF0.05584885579269051
aaa(lp899
(F26.700000000000003
F53.0
tp900
a(lp901
F-0.8304935060911471
aF28.47966898737556
aF0.052845609565638996
aaa(lp902
(F44.5
F-53.0
tp903
a(lp904
F-2.194146094668047
aF30.93077756655071
aF0.05130231006653248
aaa(lp905
(F44.5
F-35.33333333333333
tp906
a(lp907
F-2.212732771417769
aF27.815922239385234
aF0.05132485915793075
aaa(lp908
(F44.5
F-17.666666666666664
tp909
a(lp910
F-2.19135300360426
aF24.641568020599163
aF0.05134836058809435
aaa(lp911
(F44.5
F0.0
tp912
a(lp913
F-0.8304935060911471
aF28.47966898737556
aF0.052845609565638996
aaa(lp914
(F44.5
F17.66666666666667
tp915
a(lp916
F0.4368116384326979
aF27.76807996032619
aF0.051355260997812374
aaa(lp917
(F44.5
F35.33333333333334
tp918
a(lp919
F-2.194146094668047
aF30.93077756655071
aF0.05130231006653248
aaa(lp920
(F44.5
F53.0
tp921
a(lp922
F-0.9069533162334461
aF26.998599331506668
aF0.04983546292886944
aaasS'gridcalibration1466449303'
p923
(lp924
(lp925
(F-44.5
F-53.0
tp926
a(lp927
F-7.590468464956884
aF-8.89433473520345
aaF0.5564930164846096
aa(lp928
(F-44.5
F-35.33333333333333
tp929
a(lp930
F-7.427053438272353
aF-5.9388841427237535
aaF0.8027401001581302
aa(lp931
(F-44.5
F-17.666666666666664
tp932
a(lp933
F-7.731946547288732
aF-3.2687259788415925
aaF0.7494245938305654
aa(lp934
(F-44.5
F0.0
tp935
a(lp936
F-7.615543927749572
aF-0.32179860342887473
aaF0.8500819120798369
aa(lp937
(F-44.5
F17.66666666666667
tp938
a(lp939
F-7.2174255387347
aF2.7387165708755674
aaF0.8595620642378274
aa(lp940
(F-44.5
F35.33333333333334
tp941
a(lp942
F-7.740719821523002
aF6.147952423844195
aaF0.729466016413776
aa(lp943
(F-44.5
F53.0
tp944
a(lp945
F-7.63258834881024
aF8.928692694279494
aaF0.6733141714574418
aa(lp946
(F-26.7
F-53.0
tp947
a(lp948
F-4.3918035034578455
aF-8.311253755737741
aaF0.7537064884685615
aa(lp949
(F-26.7
F-35.33333333333333
tp950
a(lp951
F-4.49078317803603
aF-5.68784597951677
aaF0.9254789453376658
aa(lp952
(F-26.7
F-17.666666666666664
tp953
a(lp954
F-4.378120305395525
aF-2.4060441450916845
aaF0.7021469008533499
aa(lp955
(F-26.7
F0.0
tp956
a(lp957
F-4.536060503346186
aF0.30072956762835895
aaF0.6366147444811262
aa(lp958
(F-26.7
F17.66666666666667
tp959
a(lp960
F-4.500670746568502
aF2.9904586934861745
aaF0.8215638748849902
aa(lp961
(F-26.7
F35.33333333333334
tp962
a(lp963
F-4.243011489856511
aF5.6293262277030705
aaF0.9599016011995523
aa(lp964
(F-26.7
F53.0
tp965
a(lp966
F-4.440595464320502
aF8.380612087950153
aaF0.8774846955324366
aa(lp967
(F-8.899999999999999
F-53.0
tp968
a(lp969
F-1.5348894048127817
aF-8.573673171362563
aaF0.6840793211545412
aa(lp970
(F-8.899999999999999
F-35.33333333333333
tp971
a(lp972
F-1.1826095879288816
aF-5.587649505751124
aaF0.8122952402226234
aa(lp973
(F-8.899999999999999
F-17.666666666666664
tp974
a(lp975
F-1.4325339211832995
aF-2.9919189386589045
aaF0.6694975758986846
aa(lp976
(F-8.899999999999999
F0.0
tp977
a(lp978
F-1.5102978211853126
aF-0.06517603730116514
aaF0.7574672048915377
aa(lp979
(F-8.899999999999999
F17.66666666666667
tp980
a(lp981
F-1.4908286736350496
aF2.675557508952822
aaF0.7838175550722439
aa(lp982
(F-8.899999999999999
F35.33333333333334
tp983
a(lp984
F-1.4630893890807048
aF5.648236997689495
aaF0.6492148590580156
aa(lp985
(F-8.899999999999999
F53.0
tp986
a(lp987
F-1.5601342314208868
aF8.519262190917244
aaF0.8315471261603449
aa(lp988
(F8.900000000000006
F-53.0
tp989
a(lp990
F1.436681635784612
aF-8.575226802001728
aaF0.7857478535699256
aa(lp991
(F8.900000000000006
F-35.33333333333333
tp992
a(lp993
F1.4745530638488593
aF-6.032192920893239
aaF0.7474053703134996
aa(lp994
(F8.900000000000006
F-17.666666666666664
tp995
a(lp996
F1.717862473616913
aF-3.0560605154781193
aaF0.7781454497180094
aa(lp997
(F8.900000000000006
F0.0
tp998
a(lp999
F1.2582526897414643
aF-0.2915081393238793
aaF0.7414841239452161
aa(lp1000
(F8.900000000000006
F17.66666666666667
tp1001
a(lp1002
F1.2943107975455357
aF2.5280567803086385
aaF0.7523209681964897
aa(lp1003
(F8.900000000000006
F35.33333333333334
tp1004
a(lp1005
F1.5681293990988965
aF5.555691829210492
aaF0.7552493604008745
aa(lp1006
(F8.900000000000006
F53.0
tp1007
a(lp1008
F1.4685971190271576
aF8.310167231997665
aaF0.7111423415408982
aa(lp1009
(F26.700000000000003
F-53.0
tp1010
a(lp1011
F4.851554448267511
aF-8.962635132208282
aaF0.7131635843821159
aa(lp1012
(F26.700000000000003
F-35.33333333333333
tp1013
a(lp1014
F4.813243488367965
aF-6.062650533874503
aaF0.6576734663538463
aa(lp1015
(F26.700000000000003
F-17.666666666666664
tp1016
a(lp1017
F4.361067159334348
aF-2.8203522874831757
aaF0.7912961829118665
aa(lp1018
(F26.700000000000003
F0.0
tp1019
a(lp1020
F4.573202432595073
aF-0.1801506324686965
aaF0.6807738998614726
aa(lp1021
(F26.700000000000003
F17.66666666666667
tp1022
a(lp1023
F4.462718364991092
aF2.801741780764957
aaF0.6776901032929613
aa(lp1024
(F26.700000000000003
F35.33333333333334
tp1025
a(lp1026
F4.823901864650578
aF6.0008314326387255
aaF0.700321088899975
aa(lp1027
(F26.700000000000003
F53.0
tp1028
a(lp1029
F4.832797060255066
aF8.971014481380255
aaF0.6667132188487996
aa(lp1030
(F44.5
F-53.0
tp1031
a(lp1032
F7.520021991921679
aF-8.850275117032352
aaF0.4937633970117137
aa(lp1033
(F44.5
F-35.33333333333333
tp1034
a(lp1035
F7.777171972860808
aF-6.24254796215328
aaF0.7220273337975166
aa(lp1036
(F44.5
F-17.666666666666664
tp1037
a(lp1038
F7.740293741744815
aF-3.086635955279243
aaF0.5880402925245823
aa(lp1039
(F44.5
F0.0
tp1040
a(lp1041
F7.5377121271000735
aF-0.17378181203333148
aaF0.6356379871336801
aa(lp1042
(F44.5
F17.66666666666667
tp1043
a(lp1044
F7.463600174220135
aF2.783015692589586
aaF0.6798755560690192
aa(lp1045
(F44.5
F35.33333333333334
tp1046
a(lp1047
F7.542410649080538
aF6.114427893567102
aaF0.6093533018239733
aa(lp1048
(F44.5
F53.0
tp1049
a(lp1050
F7.375584632710336
aF9.246154012396099
aaF0.411786775350975
aasS'gridcalibration1466604956'
p1051
(lp1052
sS'gridcalibration1466604957'
p1053
(lp1054
sS'gridcalibration1466604955'
p1055
(lp1056
sS'gridcalibration1466527877'
p1057
(lp1058
(lp1059
(F-44.5
F-53.0
tp1060
a(lp1061
F-8.34049486461293
aF-11.029470077459038
aaF0.024767270437115692
aa(lp1062
(F-44.5
F-35.33333333333333
tp1063
a(lp1064
F-8.4026454681354
aF-7.666544662869883
aaF0.023186649613501014
aa(lp1065
(F-44.5
F-17.666666666666664
tp1066
a(lp1067
F-8.553780681318871
aF-4.778806864451583
aaF0.02007168139364938
aa(lp1068
(F-44.5
F0.0
tp1069
a(lp1070
F-7.4287871067411535
aF-0.034226119039265146
aaF0.02771420810843752
aa(lp1071
(F-44.5
F17.66666666666667
tp1072
a(lp1073
F-7.428787106741153
aF2.5710137898239904
aaF0.02614487410538011
aa(lp1074
(F-44.5
F35.33333333333334
tp1075
a(lp1076
F-7.428787106741153
aF5.508982221281527
aaF0.024575540102322616
aa(lp1077
(F-44.5
F53.0
tp1078
a(lp1079
F-7.428787106741152
aF8.847768913646766
aaF0.024539990422927715
aa(lp1080
(F-26.7
F-53.0
tp1081
a(lp1082
F-5.086907166030617
aF-9.771850308913901
aaF0.029370939245492812
aa(lp1083
(F-26.7
F-35.33333333333333
tp1084
a(lp1085
F-4.9547637615291595
aF-7.871545109418219
aaF0.02780216831500982
aa(lp1086
(F-26.7
F-17.666666666666664
tp1087
a(lp1088
F-5.4464424046484705
aF-4.154550663911786
aaF0.023132219363387628
aa(lp1089
(F-26.7
F0.0
tp1090
a(lp1091
F-4.959041257636346
aF-1.0206900590807038
aaF0.02770662377035186
aa(lp1092
(F-26.7
F17.66666666666667
tp1093
a(lp1094
F-4.472925755543305
aF2.9128886991044847
aaF0.023034979677328656
aa(lp1095
(F-26.7
F35.33333333333334
tp1096
a(lp1097
F-4.026466578645835
aF7.473905983851983
aaF0.019907974920413983
aa(lp1098
(F-26.7
F53.0
tp1099
a(lp1100
F-3.740023049337089
aF8.847768913646766
aaF0.024483491743550415
aa(lp1101
(F-8.899999999999999
F-53.0
tp1102
a(lp1103
F-1.316663897620765
aF-8.847768913646764
aaF0.02625865157950532
aa(lp1104
(F-8.899999999999999
F-35.33333333333333
tp1105
a(lp1106
F-2.7886270419119814
aF-7.749206999820245
aaF0.024706061785578395
aa(lp1107
(F-8.899999999999999
F-17.666666666666664
tp1108
a(lp1109
F-0.9521638817444594
aF-3.36600191179032
aaF0.02461859694639362
aa(lp1110
(F-8.899999999999999
F0.0
tp1111
a(lp1112
F-2.2044885015930977
aF-0.5673269770797877
aaF0.026131072421636564
aa(lp1113
(F-8.899999999999999
F17.66666666666667
tp1114
a(lp1115
F-1.0867028723848453
aF2.4825053615835277
aaF0.021470837001558017
aa(lp1116
(F-8.899999999999999
F35.33333333333334
tp1117
a(lp1118
F-0.9572476725868971
aF6.614734070370573
aaF0.024476715642218975
aa(lp1119
(F-8.899999999999999
F53.0
tp1120
a(lp1121
F-0.5255699070723496
aF10.042342187840369
aaF0.022895898762597223
aa(lp1122
(F8.900000000000006
F-53.0
tp1123
a(lp1124
F1.0508745401332806
aF-10.102487009966964
aaF0.021631264104566637
aa(lp1125
(F8.900000000000006
F-35.33333333333333
tp1126
a(lp1127
F1.0484231717433252
aF-7.602878900557383
aaF0.021595359120772723
aa(lp1128
(F8.900000000000006
F-17.666666666666664
tp1129
a(lp1130
F2.1693692670876863
aF-2.654101431563179
aaF0.026131053541338222
aa(lp1131
(F8.900000000000006
F0.0
tp1132
a(lp1133
F2.4585005158744377
aF-0.05656455185587728
aaF0.0276157251676094
aa(lp1134
(F8.900000000000006
F17.66666666666667
tp1135
a(lp1136
F2.4542948480640674
aF2.898941120597919
aaF0.02755698485446238
aa(lp1137
(F8.900000000000006
F35.33333333333334
tp1138
a(lp1139
F2.454551432267251
aF6.860751791819202
aaF0.02748594833282195
aa(lp1140
(F8.900000000000006
F53.0
tp1141
a(lp1142
F2.4503378164997596
aF9.844980026206695
aaF0.02742732045998661
aa(lp1143
(F26.700000000000003
F-53.0
tp1144
a(lp1145
F4.113182229126439
aF-10.799610589827639
aaF0.027810799256410744
aa(lp1146
(F26.700000000000003
F-35.33333333333333
tp1147
a(lp1148
F5.068973221662878
aF-7.018866081147071
aaF0.029268912413864367
aa(lp1149
(F26.700000000000003
F-17.666666666666664
tp1150
a(lp1151
F4.439880536367185
aF-3.5976123730770615
aaF0.030732810868750807
aa(lp1152
(F26.700000000000003
F0.0
tp1153
a(lp1154
F4.581000137389041
aF-0.4867461285756294
aaF0.032193924844702515
aa(lp1155
(F26.700000000000003
F17.66666666666667
tp1156
a(lp1157
F4.7141465323583756
aF3.164667671661515
aaF0.0336432451476785
aa(lp1158
(F26.700000000000003
F35.33333333333334
tp1159
a(lp1160
F4.939882228536697
aF5.865318982611477
aaF0.027467881094032386
aa(lp1161
(F26.700000000000003
F53.0
tp1162
a(lp1163
F4.832785339828714
aF8.069794116282415
aaF0.035045121370140354
aa(lp1164
(F44.5
F-53.0
tp1165
a(lp1166
F8.039362991006207
aF-9.587581092220516
aaF0.03703430537039033
aa(lp1167
(F44.5
F-35.33333333333333
tp1168
a(lp1169
F8.657490447937358
aF-7.412450052419281
aaF0.03694998348564755
aa(lp1170
(F44.5
F-17.666666666666664
tp1171
a(lp1172
F8.098576251443745
aF-3.2864746712446746
aaF0.03376025713242724
aa(lp1173
(F44.5
F0.0
tp1174
a(lp1175
F8.075780291068169
aF-0.45603005106661176
aaF0.03522187708978196
aa(lp1176
(F44.5
F17.66666666666667
tp1177
a(lp1178
F7.428787106741153
aF2.3502165182391868
aaF0.0336222282153719
aa(lp1179
(F44.5
F35.33333333333334
tp1180
a(lp1181
F8.146294655911005
aF5.436295699123756
aaF0.03200576092821173
aa(lp1182
(F44.5
F53.0
tp1183
a(lp1184
F8.274830563252126
aF9.849367064134787
aaF0.02734146772126248
aasS'gridcalibration1466448714'
p1185
(lp1186
(lp1187
(F-44.5
F-53.0
tp1188
a(lp1189
F-8.003615174993314
aF-9.536697475745097
aaF0.0386776675918522
aa(lp1190
(F-44.5
F-35.33333333333333
tp1191
a(lp1192
F-7.871893751256228
aF-6.18009788617717
aaF0.050959544115022404
aa(lp1193
(F-44.5
F-17.666666666666664
tp1194
a(lp1195
F-7.804261947707081
aF-2.9767858925151756
aaF0.06013855027073457
aa(lp1196
(F-44.5
F0.0
tp1197
a(lp1198
F-8.273129921581344
aF0.22061260871966373
aaF0.05389915487574323
aa(lp1199
(F-44.5
F17.66666666666667
tp1200
a(lp1201
F-8.24418458346053
aF2.9218281312963756
aaF0.05538528936752475
aa(lp1202
(F-44.5
F35.33333333333334
tp1203
a(lp1204
F-8.695082027793815
aF6.303710067692219
aaF0.0537709467297843
aa(lp1205
(F-44.5
F53.0
tp1206
a(lp1207
F-7.832898883809011
aF9.32907058071635
aaF0.056738884753206875
aa(lp1208
(F-26.7
F-53.0
tp1209
a(lp1210
F-5.6097253353887355
aF-9.69608822572974
aaF0.06340453137343173
aa(lp1211
(F-26.7
F-35.33333333333333
tp1212
a(lp1213
F-5.025204358821974
aF-5.999820333783764
aaF0.057090022789630955
aa(lp1214
(F-26.7
F-17.666666666666664
tp1215
a(lp1216
F-4.89025753157127
aF-2.816517505852554
aaF0.05391567468034566
aa(lp1217
(F-26.7
F0.0
tp1218
a(lp1219
F-4.960209185130951
aF-0.03824208530998916
aaF0.04615485170724194
aa(lp1220
(F-26.7
F17.66666666666667
tp1221
a(lp1222
F-5.253854634629102
aF3.08924255188695
aaF0.05223115767778249
aa(lp1223
(F-26.7
F35.33333333333334
tp1224
a(lp1225
F-4.82352566429561
aF6.225465060285987
aaF0.05213386686674241
aa(lp1226
(F-26.7
F53.0
tp1227
a(lp1228
F-5.3285547707640575
aF9.357375984483081
aaF0.05358740367273855
aa(lp1229
(F-8.899999999999999
F-53.0
tp1230
a(lp1231
F-2.3422310243736715
aF-9.851304664951835
aaF0.0540910246256485
aa(lp1232
(F-8.899999999999999
F-35.33333333333333
tp1233
a(lp1234
F-2.3731166294028254
aF-6.856236196447331
aaF0.06788786621709336
aa(lp1235
(F-8.899999999999999
F-17.666666666666664
tp1236
a(lp1237
F-2.260944289420382
aF-3.5378979479848085
aaF0.06621208814894444
aa(lp1238
(F-8.899999999999999
F0.0
tp1239
a(lp1240
F-1.9553618240632162
aF-0.4307666507276686
aaF0.07070277393482692
aa(lp1241
(F-8.899999999999999
F17.66666666666667
tp1242
a(lp1243
F-1.6514720523297282
aF2.763798523753485
aaF0.06289556652311062
aa(lp1244
(F-8.899999999999999
F35.33333333333334
tp1245
a(lp1246
F-1.8390974233370725
aF5.6755504290853676
aaF0.06892192503498173
aa(lp1247
(F-8.899999999999999
F53.0
tp1248
a(lp1249
F-1.7954112603188912
aF9.274355174808226
aaF0.064193742622631
aa(lp1250
(F8.900000000000006
F-53.0
tp1251
a(lp1252
F1.3810355014879565
aF-10.494375075604776
aaF0.04944923530349257
aa(lp1253
(F8.900000000000006
F-35.33333333333333
tp1254
a(lp1255
F1.098276119223253
aF-6.226083318339621
aaF0.061639566003408156
aa(lp1256
(F8.900000000000006
F-17.666666666666664
tp1257
a(lp1258
F1.4678582162035438
aF-3.839627580199687
aaF0.05384614966141997
aa(lp1259
(F8.900000000000006
F0.0
tp1260
a(lp1261
F1.3741163592986991
aF-0.6071530744116268
aaF0.049131030031640696
aa(lp1262
(F8.900000000000006
F17.66666666666667
tp1263
a(lp1264
F1.3689706960917347
aF3.2714533146004143
aaF0.049002149273462005
aa(lp1265
(F8.900000000000006
F35.33333333333334
tp1266
a(lp1267
F1.5697826565595832
aF5.657518464168115
aaF0.042812600608996526
aa(lp1268
(F8.900000000000006
F53.0
tp1269
a(lp1270
F1.691953548861763
aF9.308762168405611
aaF0.05949215624609269
aa(lp1271
(F26.700000000000003
F-53.0
tp1272
a(lp1273
F4.588701806548754
aF-8.855557567336401
aaF0.06481042030115097
aa(lp1274
(F26.700000000000003
F-35.33333333333333
tp1275
a(lp1276
F4.6048551935030595
aF-6.492643510354544
aaF0.05698674443695052
aa(lp1277
(F26.700000000000003
F-17.666666666666664
tp1278
a(lp1279
F4.203962825396853
aF-3.163456019385768
aaF0.056859804855368276
aa(lp1280
(F26.700000000000003
F0.0
tp1281
a(lp1282
F4.630835158016594
aF-0.0613709973179371
aaF0.049056621061773234
aa(lp1283
(F26.700000000000003
F17.66666666666667
tp1284
a(lp1285
F4.263648008961995
aF2.358070157097503
aaF0.05050710744610872
aa(lp1286
(F26.700000000000003
F35.33333333333334
tp1287
a(lp1288
F5.220478425808146
aF6.197212928988517
aaF0.04119392185979407
aa(lp1289
(F26.700000000000003
F53.0
tp1290
a(lp1291
F4.79893038303052
aF8.850084923447442
aaF0.0517905661584413
aa(lp1292
(F44.5
F-53.0
tp1293
a(lp1294
F7.422448954280743
aF-9.340761851275667
aaF0.055555831995205085
aa(lp1295
(F44.5
F-35.33333333333333
tp1296
a(lp1297
F7.422768051175079
aF-6.557838472066667
aaF0.05850109363256131
aa(lp1298
(F44.5
F-17.666666666666664
tp1299
a(lp1300
F7.4258474619099415
aF-3.4636202628972357
aaF0.059891815758334015
aa(lp1301
(F44.5
F0.0
tp1302
a(lp1303
F7.857140394532128
aF-0.3201568390725578
aaF0.0536108295125854
aa(lp1304
(F44.5
F17.66666666666667
tp1305
a(lp1306
F7.861494891947803
aF3.230214470873947
aaF0.053458871431981886
aa(lp1307
(F44.5
F35.33333333333334
tp1308
a(lp1309
F7.437313481692156
aF6.162270176797644
aaF0.06096566363775486
aa(lp1310
(F44.5
F53.0
tp1311
a(lp1312
F7.896963220790197
aF9.395420785128154
aaF0.05016101950850388
aasS'M5238'
p1313
(lp1314
(lp1315
F0.3374
aF-0.0003
aF-0.0017
aF-0.0726
aF-0.0125
aF0.225
aa(lp1316
F0.0021
aF0.3382
aF0.0004
aF0.0098
aF-0.0433
aF-0.0117
aa(lp1317
F-0.0005
aF-0.0008
aF0.0847
aF-0.0082
aF-0.0051
aF0.0035
aa(lp1318
F0.003
aF0.0026
aF-0.0012
aF19.7556
aF0.0741
aF0.0014
aa(lp1319
F0.0026
aF0.0055
aF0.0088
aF-0.0181
aF19.8361
aF0.1955
aa(lp1320
F-0.0019
aF0.0002
aF-0.0006
aF0.0638
aF-0.047
aF13.1748
aasS'M5239'
p1321
(lp1322
(lp1323
F0.3482
aF-0.0008
aF-0.0006
aF-0.0782
aF-0.023
aF-0.0396
aa(lp1324
F0.0036
aF0.3468
aF0.0009
aF0.0216
aF-0.0857
aF-0.0781
aa(lp1325
F-0.0016
aF-0.001
aF0.0871
aF-0.003
aF0.0184
aF0.0192
aa(lp1326
F0.0005
aF-0.003
aF-0.0056
aF20.4536
aF-0.428
aF-0.0628
aa(lp1327
F-0.003
aF0.0067
aF0.0013
aF0.0971
aF20.4307
aF0.2442
aa(lp1328
F0.0051
aF0.002
aF0.0002
aF0.0854
aF0.0779
aF13.5338
aasS'M5170_inv'
p1329
(lp1330
(lp1331
F2.8297
aF0.003
aF0.0308
aF0.0121
aF0.008
aF0.0013
aa(lp1332
F-0.024
aF2.8383
aF-0.0143
aF-0.0078
aF0.004
aF0.0101
aa(lp1333
F0.033
aF0.024
aF11.3551
aF0.0072
aF0.0053
aF0.0377
aa(lp1334
F-0.0001
aF0.0002
aF0.0039
aF0.0487
aF0.0002
aF-0.0004
aa(lp1335
F0.0002
aF-0.0001
aF-0.0014
aF-0.0005
aF0.0489
aF-0.0003
aa(lp1336
F-0.0004
aF-0.0009
aF-0.0003
aF0.0
aF0.0
aF0.0727
aasS'gridcalibration1466440236'
p1337
(lp1338
(lp1339
(F-44.5
F-53.0
tp1340
a(lp1341
F11.222794131837366
aF13.366473909828775
aaF-0.006052802467421651
aa(lp1342
(F-44.5
F-35.33333333333333
tp1343
a(lp1344
F22.80024655206465
aF27.155349826054533
aaF-0.0029879238421832424
aa(lp1345
(F-44.5
F-17.666666666666664
tp1346
a(lp1347
F22.80024655206465
aF27.155349826054533
aaF-0.0029879238421832424
aa(lp1348
(F-44.5
F0.0
tp1349
a(lp1350
F22.80024655206465
aF27.155349826054533
aaF-0.0029879238421832424
aa(lp1351
(F-44.5
F17.66666666666667
tp1352
a(lp1353
F22.80024655206465
aF27.155349826054533
aaF-0.0029879238421832424
aa(lp1354
(F-44.5
F35.33333333333334
tp1355
a(lp1356
F22.80024655206465
aF27.155349826054533
aaF-0.0029879238421832424
aa(lp1357
(F-44.5
F53.0
tp1358
a(lp1359
F22.80024655206465
aF27.155349826054533
aaF-0.0029879238421832424
aa(lp1360
(F-26.7
F-53.0
tp1361
a(lp1362
F22.80024655206465
aF27.155349826054533
aaF-0.0029879238421832424
aa(lp1363
(F-26.7
F-35.33333333333333
tp1364
a(lp1365
F22.80024655206465
aF27.155349826054533
aaF-0.0029879238421832424
aa(lp1366
(F-26.7
F-17.666666666666664
tp1367
a(lp1368
F22.80024655206465
aF27.155349826054533
aaF-0.0029879238421832424
aa(lp1369
(F-26.7
F0.0
tp1370
a(lp1371
F22.80024655206465
aF27.155349826054533
aaF-0.0029879238421832424
aa(lp1372
(F-26.7
F17.66666666666667
tp1373
a(lp1374
F22.80024655206465
aF27.155349826054533
aaF-0.0029879238421832424
aa(lp1375
(F-26.7
F35.33333333333334
tp1376
a(lp1377
F22.80024655206465
aF27.155349826054533
aaF-0.0029879238421832424
aa(lp1378
(F-26.7
F53.0
tp1379
a(lp1380
F22.80024655206465
aF27.155349826054533
aaF-0.0029879238421832424
aa(lp1381
(F-8.899999999999999
F-53.0
tp1382
a(lp1383
F22.80024655206465
aF27.155349826054533
aaF-0.0029879238421832424
aa(lp1384
(F-8.899999999999999
F-35.33333333333333
tp1385
a(lp1386
F22.80024655206465
aF27.155349826054533
aaF-0.0029879238421832424
aa(lp1387
(F-8.899999999999999
F-17.666666666666664
tp1388
a(lp1389
F22.80024655206465
aF27.155349826054533
aaF-0.0029879238421832424
aa(lp1390
(F-8.899999999999999
F0.0
tp1391
a(lp1392
F22.80024655206465
aF27.155349826054533
aaF-0.0029879238421832424
aa(lp1393
(F-8.899999999999999
F17.66666666666667
tp1394
a(lp1395
F22.80024655206465
aF27.155349826054533
aaF-0.0029879238421832424
aa(lp1396
(F-8.899999999999999
F35.33333333333334
tp1397
a(lp1398
F22.80024655206465
aF27.155349826054533
aaF-0.0029879238421832424
aa(lp1399
(F-8.899999999999999
F53.0
tp1400
a(lp1401
F22.80024655206465
aF27.155349826054533
aaF-0.0029879238421832424
aa(lp1402
(F8.900000000000006
F-53.0
tp1403
a(lp1404
F22.80024655206465
aF27.155349826054533
aaF-0.0029879238421832424
aa(lp1405
(F8.900000000000006
F-35.33333333333333
tp1406
a(lp1407
F22.80024655206465
aF27.155349826054533
aaF-0.0029879238421832424
aa(lp1408
(F8.900000000000006
F-17.666666666666664
tp1409
a(lp1410
F22.80024655206465
aF27.155349826054533
aaF-0.0029879238421832424
aa(lp1411
(F8.900000000000006
F0.0
tp1412
a(lp1413
F22.80024655206465
aF27.155349826054533
aaF-0.0029879238421832424
aa(lp1414
(F8.900000000000006
F17.66666666666667
tp1415
a(lp1416
F22.80024655206465
aF27.155349826054533
aaF-0.0029879238421832424
aa(lp1417
(F8.900000000000006
F35.33333333333334
tp1418
a(lp1419
F22.80024655206465
aF27.155349826054533
aaF-0.0029879238421832424
aa(lp1420
(F8.900000000000006
F53.0
tp1421
a(lp1422
F22.80024655206465
aF27.155349826054533
aaF-0.0029879238421832424
aa(lp1423
(F26.700000000000003
F-53.0
tp1424
a(lp1425
F22.80024655206465
aF27.155349826054533
aaF-0.0029879238421832424
aa(lp1426
(F26.700000000000003
F-35.33333333333333
tp1427
a(lp1428
F22.80024655206465
aF27.155349826054533
aaF-0.0029879238421832424
aa(lp1429
(F26.700000000000003
F-17.666666666666664
tp1430
a(lp1431
F22.80024655206465
aF27.155349826054533
aaF-0.0029879238421832424
aa(lp1432
(F26.700000000000003
F0.0
tp1433
a(lp1434
F22.80024655206465
aF27.155349826054533
aaF-0.0029879238421832424
aa(lp1435
(F26.700000000000003
F17.66666666666667
tp1436
a(lp1437
F22.80024655206465
aF27.155349826054533
aaF-0.0029879238421832424
aa(lp1438
(F26.700000000000003
F35.33333333333334
tp1439
a(lp1440
F22.80024655206465
aF27.155349826054533
aaF-0.0029879238421832424
aa(lp1441
(F26.700000000000003
F53.0
tp1442
a(lp1443
F22.80024655206465
aF27.155349826054533
aaF-0.0029879238421832424
aa(lp1444
(F44.5
F-53.0
tp1445
a(lp1446
F22.80024655206465
aF27.155349826054533
aaF-0.0029879238421832424
aa(lp1447
(F44.5
F-35.33333333333333
tp1448
a(lp1449
F22.80024655206465
aF27.155349826054533
aaF-0.0029879238421832424
aa(lp1450
(F44.5
F-17.666666666666664
tp1451
a(lp1452
F22.80024655206465
aF27.155349826054533
aaF-0.0029879238421832424
aa(lp1453
(F44.5
F0.0
tp1454
a(lp1455
F22.80024655206465
aF27.155349826054533
aaF-0.0029879238421832424
aa(lp1456
(F44.5
F17.66666666666667
tp1457
a(lp1458
F22.80024655206465
aF27.155349826054533
aaF-0.0029879238421832424
aa(lp1459
(F44.5
F35.33333333333334
tp1460
a(lp1461
F22.80024655206465
aF27.155349826054533
aaF-0.0029879238421832424
aa(lp1462
(F44.5
F53.0
tp1463
a(lp1464
F22.80024655206465
aF27.155349826054533
aaF-0.0029879238421832424
aasS'M5237'
p1465
(lp1466
(lp1467
F0.6789
aF0.0034
aF-0.0013
aF-0.2676
aF0.2778
aF0.0501
aa(lp1468
F0.0098
aF0.6808
aF0.0023
aF-0.4103
aF-0.1925
aF0.0485
aa(lp1469
F-0.004
aF-0.0045
aF0.1643
aF-0.0228
aF-0.0171
aF0.0114
aa(lp1470
F-0.0059
aF-0.0037
aF-0.0029
aF38.7248
aF0.0656
aF-0.0667
aa(lp1471
F-0.0037
aF0.0103
aF0.0064
aF0.1106
aF38.6657
aF0.0941
aa(lp1472
F0.0024
aF-0.0004
aF0.0008
aF-0.0325
aF-0.0992
aF27.5819
aasS'gridcalibration1466448352'
p1473
(lp1474
(lp1475
(F-44.5
F-53.0
tp1476
a(lp1477
F-0.29729648953932913
aF6.343508326992961
aaF-1.1095986864632694
aa(lp1478
(F-44.5
F-35.33333333333333
tp1479
a(lp1480
F-0.29729648953932913
aF6.343508326992961
aaF-1.1095986864632694
aa(lp1481
(F-44.5
F-17.666666666666664
tp1482
a(lp1483
F-0.29729648953932913
aF6.343508326992961
aaF-1.1095986864632694
aa(lp1484
(F-44.5
F0.0
tp1485
a(lp1486
F-0.29729648953932913
aF6.343508326992961
aaF-1.1095986864632694
aa(lp1487
(F-44.5
F17.66666666666667
tp1488
a(lp1489
F-0.29729648953932913
aF6.343508326992961
aaF-1.1095986864632694
aa(lp1490
(F-44.5
F35.33333333333334
tp1491
a(lp1492
F-0.29729648953932913
aF6.343508326992961
aaF-1.1095986864632694
aa(lp1493
(F-44.5
F53.0
tp1494
a(lp1495
F-0.29729648953932913
aF6.343508326992961
aaF-1.1095986864632694
aa(lp1496
(F-26.7
F-53.0
tp1497
a(lp1498
F-0.29729648953932913
aF6.343508326992961
aaF-1.1095986864632694
aa(lp1499
(F-26.7
F-35.33333333333333
tp1500
a(lp1501
F-0.29729648953932913
aF6.343508326992961
aaF-1.1095986864632694
aa(lp1502
(F-26.7
F-17.666666666666664
tp1503
a(lp1504
F-0.29729648953932913
aF6.343508326992961
aaF-1.1095986864632694
aa(lp1505
(F-26.7
F0.0
tp1506
a(lp1507
F-0.29729648953932913
aF6.343508326992961
aaF-1.1095986864632694
aa(lp1508
(F-26.7
F17.66666666666667
tp1509
a(lp1510
F-0.29729648953932913
aF6.343508326992961
aaF-1.1095986864632694
aa(lp1511
(F-26.7
F35.33333333333334
tp1512
a(lp1513
F-0.29729648953932913
aF6.343508326992961
aaF-1.1095986864632694
aa(lp1514
(F-26.7
F53.0
tp1515
a(lp1516
F-0.29729648953932913
aF6.343508326992961
aaF-1.1095986864632694
aa(lp1517
(F-8.899999999999999
F-53.0
tp1518
a(lp1519
F-0.29729648953932913
aF6.343508326992961
aaF-1.1095986864632694
aa(lp1520
(F-8.899999999999999
F-35.33333333333333
tp1521
a(lp1522
F-0.29729648953932913
aF6.343508326992961
aaF-1.1095986864632694
aa(lp1523
(F-8.899999999999999
F-17.666666666666664
tp1524
a(lp1525
F-0.29729648953932913
aF6.343508326992961
aaF-1.1095986864632694
aa(lp1526
(F-8.899999999999999
F0.0
tp1527
a(lp1528
F-0.29729648953932913
aF6.343508326992961
aaF-1.1095986864632694
aa(lp1529
(F-8.899999999999999
F17.66666666666667
tp1530
a(lp1531
F-0.3000725717537011
aF6.335528978684727
aaF-1.1095986864632694
aa(lp1532
(F-8.899999999999999
F35.33333333333334
tp1533
a(lp1534
F-0.3000725717537011
aF6.335528978684727
aaF-1.1095986864632694
aa(lp1535
(F-8.899999999999999
F53.0
tp1536
a(lp1537
F-0.3000725717537011
aF6.335528978684727
aaF-1.1095986864632694
aa(lp1538
(F8.900000000000006
F-53.0
tp1539
a(lp1540
F-0.3000725717537011
aF6.335528978684727
aaF-1.1095986864632694
aa(lp1541
(F8.900000000000006
F-35.33333333333333
tp1542
a(lp1543
F-0.3000725717537011
aF6.335528978684727
aaF-1.1095986864632694
aa(lp1544
(F8.900000000000006
F-17.666666666666664
tp1545
a(lp1546
F-0.3000725717537011
aF6.335528978684727
aaF-1.1095986864632694
aa(lp1547
(F8.900000000000006
F0.0
tp1548
a(lp1549
F-0.3000725717537011
aF6.335528978684727
aaF-1.1095986864632694
aa(lp1550
(F8.900000000000006
F17.66666666666667
tp1551
a(lp1552
F-0.3000725717537011
aF6.335528978684727
aaF-1.1095986864632694
aa(lp1553
(F8.900000000000006
F35.33333333333334
tp1554
a(lp1555
F-0.3000725717537011
aF6.335528978684727
aaF-1.1095986864632694
aa(lp1556
(F8.900000000000006
F53.0
tp1557
a(lp1558
F-0.3000725717537011
aF6.335528978684727
aaF-1.1095986864632694
aa(lp1559
(F26.700000000000003
F-53.0
tp1560
a(lp1561
F-0.3000725717537011
aF6.335528978684727
aaF-1.1095986864632694
aa(lp1562
(F26.700000000000003
F-35.33333333333333
tp1563
a(lp1564
F-0.3000725717537011
aF6.335528978684727
aaF-1.1095986864632694
aa(lp1565
(F26.700000000000003
F-17.666666666666664
tp1566
a(lp1567
F-0.3000725717537011
aF6.335528978684727
aaF-1.1095986864632694
aa(lp1568
(F26.700000000000003
F0.0
tp1569
a(lp1570
F-0.3000725717537011
aF6.335528978684727
aaF-1.1095986864632694
aa(lp1571
(F26.700000000000003
F17.66666666666667
tp1572
a(lp1573
F-0.3000725717537011
aF6.335528978684727
aaF-1.1095986864632694
aa(lp1574
(F26.700000000000003
F35.33333333333334
tp1575
a(lp1576
F-0.3000725717537011
aF6.335528978684727
aaF-1.1095986864632694
aa(lp1577
(F26.700000000000003
F53.0
tp1578
a(lp1579
F-0.26092272758074936
aF6.420990571850016
aaF-1.1095986864632694
aa(lp1580
(F44.5
F-53.0
tp1581
a(lp1582
F-0.26092272758074936
aF6.420990571850016
aaF-1.1095986864632694
aa(lp1583
(F44.5
F-35.33333333333333
tp1584
a(lp1585
F-0.26092272758074936
aF6.420990571850016
aaF-1.1095986864632694
aa(lp1586
(F44.5
F-17.666666666666664
tp1587
a(lp1588
F-0.26092272758074936
aF6.420990571850016
aaF-1.1095986864632694
aa(lp1589
(F44.5
F0.0
tp1590
a(lp1591
F-0.26092272758074936
aF6.420990571850016
aaF-1.1095986864632694
aa(lp1592
(F44.5
F17.66666666666667
tp1593
a(lp1594
F-0.26092272758074936
aF6.420990571850016
aaF-1.1095986864632694
aa(lp1595
(F44.5
F35.33333333333334
tp1596
a(lp1597
F-0.26092272758074936
aF6.420990571850016
aaF-1.1095986864632694
aa(lp1598
(F44.5
F53.0
tp1599
a(lp1600
F-0.26092272758074936
aF6.420990571850016
aaF-1.1095986864632694
aasS'gridcalibration1466177615'
p1601
(lp1602
(lp1603
(F-44.5
F-53.0
tp1604
a(lp1605
F4.773907183109497
aF39.08661644158232
aaF0.046792515443285845
aa(lp1606
(F-44.5
F-35.33333333333333
tp1607
a(lp1608
F4.489498158937566
aF36.71488353333186
aaF0.04982521117145368
aa(lp1609
(F-44.5
F-17.666666666666664
tp1610
a(lp1611
F7.631773919591276
aF39.0953675097001
aaF0.04682196494440223
aa(lp1612
(F-44.5
F0.0
tp1613
a(lp1614
F5.691561186349813
aF34.01951757835311
aaF0.0513685106705602
aa(lp1615
(F-44.5
F17.66666666666667
tp1616
a(lp1617
F3.2306768482401202
aF36.202516761806066
aaF0.04830541310251075
aa(lp1618
(F-44.5
F35.33333333333334
tp1619
a(lp1620
F6.023601821195406
aF39.524300583104406
aaF0.04831231351222878
aa(lp1621
(F-44.5
F53.0
tp1622
a(lp1623
F4.773907183109497
aF39.08661644158232
aaF0.046792515443285845
aa(lp1624
(F-26.7
F-53.0
tp1625
a(lp1626
F3.0667049790391556
aF37.187849240542306
aaF0.0513155597392803
aa(lp1627
(F-26.7
F-35.33333333333333
tp1628
a(lp1629
F3.0667049790391556
aF37.187849240542306
aaF0.0513155597392803
aa(lp1630
(F-26.7
F-17.666666666666664
tp1631
a(lp1632
F4.773907183109497
aF39.08661644158232
aaF0.046792515443285845
aa(lp1633
(F-26.7
F0.0
tp1634
a(lp1635
F4.5116790750855
aF39.92756194479927
aaF0.049802662080055404
aa(lp1636
(F-26.7
F17.66666666666667
tp1637
a(lp1638
F5.713603311296066
aF37.13444919762654
aaF0.05134596157916192
aa(lp1639
(F-26.7
F35.33333333333334
tp1640
a(lp1641
F4.530540305117457
aF36.65051803027472
aaF0.049826163510218985
aa(lp1642
(F-26.7
F53.0
tp1643
a(lp1644
F5.417331883141312
aF32.07123988710615
aaF0.05440193385686981
aa(lp1645
(F-8.899999999999999
F-53.0
tp1646
a(lp1647
F4.276416735469652
aF34.5546697780286
aaF0.05285885923838682
aa(lp1648
(F-8.899999999999999
F-35.33333333333333
tp1649
a(lp1650
F4.693475318066423
aF37.623671419539825
aaF0.06340909721763825
aa(lp1651
(F-8.899999999999999
F-17.666666666666664
tp1652
a(lp1653
F4.517137052819782
aF40.7308356261018
aaF0.06639669476300944
aa(lp1654
(F-8.899999999999999
F0.0
tp1655
a(lp1656
F5.197746172176982
aF36.957651441178804
aaF0.07097246510966028
aa(lp1657
(F-8.899999999999999
F17.66666666666667
tp1658
a(lp1659
F5.003682424341475
aF37.61025479927189
aaF0.07398205808593111
aa(lp1660
(F-8.899999999999999
F35.33333333333334
tp1661
a(lp1662
F5.825783104157068
aF37.877547720736935
aaF0.07550280849363927
aa(lp1663
(F-8.899999999999999
F53.0
tp1664
a(lp1665
F5.018775318747036
aF39.77387282867957
aaF0.07395950899453275
aa(lp1666
(F8.900000000000006
F-53.0
tp1667
a(lp1668
F6.280211937692894
aF38.91701751975169
aaF0.06945956745043538
aa(lp1669
(F8.900000000000006
F-35.33333333333333
tp1670
a(lp1671
F5.414522639261882
aF37.03221162890908
aaF0.040772222169746825
aa(lp1672
(F8.900000000000006
F-17.666666666666664
tp1673
a(lp1674
F3.086035392266019
aF34.01016012617805
aaF0.025669747087512733
aa(lp1675
(F8.900000000000006
F0.0
tp1676
a(lp1677
F3.4381561754478036
aF31.48751182294634
aaF0.022659600450743257
aa(lp1678
(F8.900000000000006
F17.66666666666667
tp1679
a(lp1680
F4.524601825170737
aF23.704045450810717
aaF0.01663930717720423
aa(lp1681
(F8.900000000000006
F35.33333333333334
tp1682
a(lp1683
F0.4386436540874278
aF26.201818925505624
aaF0.012085917261484037
aa(lp1684
(F8.900000000000006
F53.0
tp1685
a(lp1686
F7.870280597764482
aF26.155924799940237
aaF0.01815910524614716
aa(lp1687
(F26.700000000000003
F-53.0
tp1688
a(lp1689
F4.279343149530555
aF40.67264550316915
aaF0.05281280871682487
aa(lp1690
(F26.700000000000003
F-35.33333333333333
tp1691
a(lp1692
F5.237249427838728
aF37.60005530516227
aaF0.08455580822376184
aa(lp1693
(F26.700000000000003
F-17.666666666666664
tp1694
a(lp1695
F4.522550887912244
aF41.53436240193639
aaF0.09958343865571245
aa(lp1696
(F26.700000000000003
F0.0
tp1697
a(lp1698
F4.815438785451068
aF39.835472805515074
aaF0.12376565918423758
aa(lp1699
(F26.700000000000003
F17.66666666666667
tp1700
a(lp1701
F4.2286629901445405
aF39.99210987708174
aaF0.1252560077520642
aa(lp1702
(F26.700000000000003
F35.33333333333334
tp1703
a(lp1704
F4.516950390340187
aF40.73038496795196
aaF0.13279278785996962
aa(lp1705
(F26.700000000000003
F53.0
tp1706
a(lp1707
F4.976239889926074
aF39.65369416952115
aaF0.1343359186986085
aa(lp1708
(F44.5
F-53.0
tp1709
a(lp1710
F4.524807709977535
aF39.50125543599648
aaF0.1328188889321591
aa(lp1711
(F44.5
F-35.33333333333333
tp1712
a(lp1713
F4.138976690641046
aF40.29705075916079
aaF0.1282628431542572
aa(lp1714
(F44.5
F-17.666666666666664
tp1715
a(lp1716
F4.138976690641046
aF40.29705075916079
aaF0.1282628431542572
aa(lp1717
(F44.5
F0.0
tp1718
a(lp1719
F4.710570012130538
aF40.14776881609145
aaF0.1267730375185136
aa(lp1720
(F44.5
F17.66666666666667
tp1721
a(lp1722
F4.710570012130538
aF40.14776881609145
aaF0.1267730375185136
aa(lp1723
(F44.5
F35.33333333333334
tp1724
a(lp1725
F4.514526608131518
aF40.38620259268191
aaF0.11619979554944135
aa(lp1726
(F44.5
F53.0
tp1727
a(lp1728
F4.181265286115039
aF39.510908615757494
aaF0.10865970420695938
aasS'gridcalibration1466176819.16'
p1729
(lp1730
(lp1731
(F-44.5
F-53.0
tp1732
a(lp1733
F15.247341034498348
aF36.68809024119377
aF0.04994451266137246
aaa(lp1734
(F-44.5
F-35.33333333333333
tp1735
a(lp1736
F14.405371128054913
aF37.61532197019632
aF0.05295465929814194
aaa(lp1737
(F-44.5
F-17.666666666666664
tp1738
a(lp1739
F12.158601154226664
aF35.98046284267377
aF0.05747843105227811
aaa(lp1740
(F-44.5
F0.0
tp1741
a(lp1742
F13.162133953657337
aF35.03279401644355
aF0.06355167525709711
aaa(lp1743
(F-44.5
F17.66666666666667
tp1744
a(lp1745
F13.782989713961745
aF36.83529109491432
aF0.06051802719016397
aaa(lp1746
(F-44.5
F35.33333333333334
tp1747
a(lp1748
F11.027406276424745
aF35.07492728556806
aF0.06352127341721549
aaa(lp1749
(F-44.5
F53.0
tp1750
a(lp1751
F13.14168181692951
aF32.51664837177034
aF0.06357422434849538
aaa(lp1752
(F-26.7
F-53.0
tp1753
a(lp1754
F12.145498828091714
aF38.82041262388323
aF0.057455154502738026
aaa(lp1755
(F-26.7
F-35.33333333333333
tp1756
a(lp1757
F12.361501981431987
aF34.644261347360555
aF0.062030924849388866
aaa(lp1758
(F-26.7
F-17.666666666666664
tp1759
a(lp1760
F11.541633191595585
aF36.88010928416988
aF0.06048785023090586
aaa(lp1761
(F-26.7
F0.0
tp1762
a(lp1763
F12.969752700963697
aF33.708091634863464
aF0.05902077821261939
aaa(lp1764
(F-26.7
F17.66666666666667
tp1765
a(lp1766
F12.99171760949735
aF36.418887183391874
aF0.05899822912122103
aaa(lp1767
(F-26.7
F35.33333333333334
tp1768
a(lp1769
F14.481647305683047
aF35.98917846344942
aF0.057507880553394494
aaa(lp1770
(F-26.7
F53.0
tp1771
a(lp1772
F12.99171760949735
aF36.418887183391874
aF0.05899822912122103
aaa(lp1773
(F-8.899999999999999
F-53.0
tp1774
a(lp1775
F11.554311141893201
aF34.183238430707185
aF0.06051112678044593
aaa(lp1776
(F-8.899999999999999
F-35.33333333333333
tp1777
a(lp1778
F12.361501981431987
aF34.644261347360555
aF0.062030924849388866
aaa(lp1779
(F-8.899999999999999
F-17.666666666666664
tp1780
a(lp1781
F12.567254425680078
aF33.44265985316029
aF0.06658437098526493
aaa(lp1782
(F-8.899999999999999
F0.0
tp1783
a(lp1784
F8.520624201343638
aF33.47350655456128
aF0.066524519644267
aaa(lp1785
(F-8.899999999999999
F17.66666666666667
tp1786
a(lp1787
F13.89405572932373
aF35.45243296977245
aF0.06507147332604003
aaa(lp1788
(F-8.899999999999999
F35.33333333333334
tp1789
a(lp1790
F11.027406276424745
aF35.07492728556806
aF0.06352127341721549
aaa(lp1791
(F-8.899999999999999
F53.0
tp1792
a(lp1793
F11.809551806029484
aF35.49377787142985
aF0.06504107148615841
aaa(lp1794
(F8.900000000000006
F-53.0
tp1795
a(lp1796
F12.38217943330118
aF37.223803944534055
aF0.06200837575799059
aaa(lp1797
(F8.900000000000006
F-35.33333333333333
tp1798
a(lp1799
F12.567254425680078
aF33.44265985316029
aF0.06658437098526493
aaa(lp1800
(F8.900000000000006
F-17.666666666666664
tp1801
a(lp1802
F12.04251803708195
aF34.28856645153474
aF0.0695945176220344
aaa(lp1803
(F8.900000000000006
F0.0
tp1804
a(lp1805
F11.317890469993428
aF33.870825463972814
aF0.06807471955309155
aaa(lp1806
(F8.900000000000006
F17.66666666666667
tp1807
a(lp1808
F13.89405572932373
aF35.45243296977245
aF0.06507147332604003
aaa(lp1809
(F8.900000000000006
F35.33333333333334
tp1810
a(lp1811
F11.809551806029484
aF35.49377787142985
aF0.06504107148615841
aaa(lp1812
(F8.900000000000006
F53.0
tp1813
a(lp1814
F11.821359649388958
aF32.985833558041854
aF0.065064572916322
aaa(lp1815
(F26.700000000000003
F-53.0
tp1816
a(lp1817
F10.548179963658166
aF35.88592902431669
aF0.06653142005398503
aaa(lp1818
(F26.700000000000003
F-35.33333333333333
tp1819
a(lp1820
F10.548179963658166
aF35.88592902431669
aF0.06653142005398503
aaa(lp1821
(F26.700000000000003
F-17.666666666666664
tp1822
a(lp1823
F11.047124665613351
aF37.59407959096081
aF0.06349872432581721
aaa(lp1824
(F26.700000000000003
F0.0
tp1825
a(lp1826
F12.38217943330118
aF37.223803944534055
aF0.06200837575799059
aaa(lp1827
(F26.700000000000003
F17.66666666666667
tp1828
a(lp1829
F11.027406276424745
aF35.07492728556806
aF0.06352127341721549
aaa(lp1830
(F26.700000000000003
F35.33333333333334
tp1831
a(lp1832
F14.535492767082038
aF37.23129294179349
aF0.062037825259106893
aaa(lp1833
(F26.700000000000003
F53.0
tp1834
a(lp1835
F12.361501981431987
aF34.644261347360555
aF0.062030924849388866
aaa(lp1836
(F44.5
F-53.0
tp1837
a(lp1838
F12.567254425680078
aF33.44265985316029
aF0.06658437098526493
aaa(lp1839
(F44.5
F-35.33333333333333
tp1840
a(lp1841
F12.361501981431987
aF34.644261347360555
aF0.062030924849388866
aaa(lp1842
(F44.5
F-17.666666666666664
tp1843
a(lp1844
F12.38217943330118
aF37.223803944534055
aF0.06200837575799059
aaa(lp1845
(F44.5
F0.0
tp1846
a(lp1847
F10.560168803998108
aF33.434006039172644
aF0.06655492148414863
aaa(lp1848
(F44.5
F17.66666666666667
tp1849
a(lp1850
F13.162133953657337
aF35.03279401644355
aF0.06355167525709711
aaa(lp1851
(F44.5
F35.33333333333334
tp1852
a(lp1853
F13.162133953657337
aF35.03279401644355
aF0.06355167525709711
aaa(lp1854
(F44.5
F53.0
tp1855
a(lp1856
F13.782989713961745
aF36.83529109491432
aF0.06051802719016397
aaasS'M5237_inv'
p1857
(lp1858
(lp1859
F1.4732
aF-0.007
aF0.126
aF0.0101
aF-0.0106
aF-0.0026
aa(lp1860
F-0.0211
aF1.4689
aF-0.0209
aF0.0154
aF0.0074
aF-0.0025
aa(lp1861
F0.0352
aF0.0399
aF6.0877
aF0.0042
aF0.0026
aF-0.0026
aa(lp1862
F0.0002
aF0.0001
aF0.0005
aF0.0256
aF0.0
aF0.0001
aa(lp1863
F0.0001
aF-0.0004
aF-0.001
aF-0.0001
aF0.0259
aF-0.0001
aa(lp1864
F-0.0001
aF0.0
aF-0.0002
aF0.0
aF0.0001
aF0.0363
aasS'gridcalibration1466446060'
p1865
(lp1866
(lp1867
(F-44.5
F-53.0
tp1868
a(lp1869
F-0.3000725717537011
aF6.335528978684727
aaF-1.1386837668737646
aa(lp1870
(F-44.5
F-35.33333333333333
tp1871
a(lp1872
F-0.3000725717537011
aF6.335528978684727
aaF-1.1386837668737646
aa(lp1873
(F-44.5
F-17.666666666666664
tp1874
a(lp1875
F-0.3000725717537011
aF6.335528978684727
aaF-1.1386837668737646
aa(lp1876
(F-44.5
F0.0
tp1877
a(lp1878
F-0.3000725717537011
aF6.335528978684727
aaF-1.1386837668737646
aa(lp1879
(F-44.5
F17.66666666666667
tp1880
a(lp1881
F-0.3000725717537011
aF6.335528978684727
aaF-1.1386837668737646
aa(lp1882
(F-44.5
F35.33333333333334
tp1883
a(lp1884
F-0.3000725717537011
aF6.335528978684727
aaF-1.1386837668737646
aa(lp1885
(F-44.5
F53.0
tp1886
a(lp1887
F-0.3000725717537011
aF6.335528978684727
aaF-1.1386837668737646
aa(lp1888
(F-26.7
F-53.0
tp1889
a(lp1890
F-0.3000725717537011
aF6.335528978684727
aaF-1.1386837668737646
aa(lp1891
(F-26.7
F-35.33333333333333
tp1892
a(lp1893
F-0.3000725717537011
aF6.335528978684727
aaF-1.1386837668737646
aa(lp1894
(F-26.7
F-17.666666666666664
tp1895
a(lp1896
F-0.3000725717537011
aF6.335528978684727
aaF-1.1386837668737646
aa(lp1897
(F-26.7
F0.0
tp1898
a(lp1899
F-0.3000725717537011
aF6.335528978684727
aaF-1.1386837668737646
aa(lp1900
(F-26.7
F17.66666666666667
tp1901
a(lp1902
F-0.3000725717537011
aF6.335528978684727
aaF-1.1386837668737646
aa(lp1903
(F-26.7
F35.33333333333334
tp1904
a(lp1905
F-0.3000725717537011
aF6.335528978684727
aaF-1.1386837668737646
aa(lp1906
(F-26.7
F53.0
tp1907
a(lp1908
F-0.3000725717537011
aF6.335528978684727
aaF-1.1386837668737646
aa(lp1909
(F-8.899999999999999
F-53.0
tp1910
a(lp1911
F-0.3000725717537011
aF6.335528978684727
aaF-1.1386837668737646
aa(lp1912
(F-8.899999999999999
F-35.33333333333333
tp1913
a(lp1914
F-0.3000725717537011
aF6.335528978684727
aaF-1.1386837668737646
aa(lp1915
(F-8.899999999999999
F-17.666666666666664
tp1916
a(lp1917
F-0.3000725717537011
aF6.335528978684727
aaF-1.1386837668737646
aa(lp1918
(F-8.899999999999999
F0.0
tp1919
a(lp1920
F-0.3000725717537011
aF6.335528978684727
aaF-1.1386837668737646
aa(lp1921
(F-8.899999999999999
F17.66666666666667
tp1922
a(lp1923
F-0.3000725717537011
aF6.335528978684727
aaF-1.1386837668737646
aa(lp1924
(F-8.899999999999999
F35.33333333333334
tp1925
a(lp1926
F-0.3000725717537011
aF6.335528978684727
aaF-1.1386837668737646
aa(lp1927
(F-8.899999999999999
F53.0
tp1928
a(lp1929
F-0.3000725717537011
aF6.335528978684727
aaF-1.1386837668737646
aa(lp1930
(F8.900000000000006
F-53.0
tp1931
a(lp1932
F-0.3000725717537011
aF6.335528978684727
aaF-1.1386837668737646
aa(lp1933
(F8.900000000000006
F-35.33333333333333
tp1934
a(lp1935
F-0.3000725717537011
aF6.335528978684727
aaF-1.1386837668737646
aa(lp1936
(F8.900000000000006
F-17.666666666666664
tp1937
a(lp1938
F-0.3000725717537011
aF6.335528978684727
aaF-1.1386837668737646
aa(lp1939
(F8.900000000000006
F0.0
tp1940
a(lp1941
F-0.3000725717537011
aF6.335528978684727
aaF-1.1386837668737646
aa(lp1942
(F8.900000000000006
F17.66666666666667
tp1943
a(lp1944
F-0.3000725717537011
aF6.335528978684727
aaF-1.1386837668737646
aa(lp1945
(F8.900000000000006
F35.33333333333334
tp1946
a(lp1947
F-0.3000725717537011
aF6.335528978684727
aaF-1.1386837668737646
aa(lp1948
(F8.900000000000006
F53.0
tp1949
a(lp1950
F-0.3000725717537011
aF6.335528978684727
aaF-1.1386837668737646
aa(lp1951
(F26.700000000000003
F-53.0
tp1952
a(lp1953
F-0.3000725717537011
aF6.335528978684727
aaF-1.1386837668737646
aa(lp1954
(F26.700000000000003
F-35.33333333333333
tp1955
a(lp1956
F-0.3000725717537011
aF6.335528978684727
aaF-1.1386837668737646
aa(lp1957
(F26.700000000000003
F-17.666666666666664
tp1958
a(lp1959
F-0.3000725717537011
aF6.335528978684727
aaF-1.1386837668737646
aa(lp1960
(F26.700000000000003
F0.0
tp1961
a(lp1962
F-0.3000725717537011
aF6.335528978684727
aaF-1.1386837668737646
aa(lp1963
(F26.700000000000003
F17.66666666666667
tp1964
a(lp1965
F-0.3000725717537011
aF6.335528978684727
aaF-1.1386837668737646
aa(lp1966
(F26.700000000000003
F35.33333333333334
tp1967
a(lp1968
F-0.3000725717537011
aF6.335528978684727
aaF-1.1386837668737646
aa(lp1969
(F26.700000000000003
F53.0
tp1970
a(lp1971
F-0.3000725717537011
aF6.335528978684727
aaF-1.1386837668737646
aa(lp1972
(F44.5
F-53.0
tp1973
a(lp1974
F-0.3000725717537011
aF6.335528978684727
aaF-1.1386837668737646
aa(lp1975
(F44.5
F-35.33333333333333
tp1976
a(lp1977
F-0.3000725717537011
aF6.335528978684727
aaF-1.1386837668737646
aa(lp1978
(F44.5
F-17.666666666666664
tp1979
a(lp1980
F-0.7603531253472847
aF5.280323458960427
aaF-1.1386837668737646
aa(lp1981
(F44.5
F0.0
tp1982
a(lp1983
F-0.40598038205047443
aF6.031116053683699
aaF-1.1386837668737646
aa(lp1984
(F44.5
F17.66666666666667
tp1985
a(lp1986
F-0.011216620513470126
aF5.281426339779291
aaF-1.1386837668737646
aa(lp1987
(F44.5
F35.33333333333334
tp1988
a(lp1989
F-0.01691611871475809
aF6.170987335326926
aaF-1.1386837668737646
aa(lp1990
(F44.5
F53.0
tp1991
a(lp1992
F-0.40598038205047443
aF6.031116053683699
aaF-1.1386837668737646
aasS'gridcalibration1466605223'
p1993
(lp1994
((F-8.899999999999999
F-17.666666666666664
tp1995
(F44.5
F53.0
tp1996
F0.0015197980689429307
tp1997
a(g1995
(F-9715.568548876632
F53.000000000000696
tp1998
F-1.3986254719664101e-05
tp1999
a(g1995
(F-0.20428203269435438
F-0.3515458627237386
tp2000
F0.009207835953931539
tp2001
a(g1995
(F14.499011030213616
F17.26848504722071
tp2002
F0.004585230354679984
tp2003
a(g1995
(F-22.487744216778484
F-0.32504616118234037
tp2004
F0.006144850826193928
tp2005
a(g1995
(F-5.0784872983763885
F-6.193525903818032
tp2006
F0.013830553993494858
tp2007
a(g1995
(F-0.26121450662106177
F-18.05334390341226
tp2008
F0.009219685847063145
tp2009
a(g1995
(F-0.20428203269435438
F-0.3515458627237386
tp2010
F0.009207835953931539
tp2011
a(g1995
(F-0.20428203269435438
F-0.3515458627237386
tp2012
F0.009207835953931539
tp2013
a(g1995
(F-6.5710618963811545
F-7.918893973050294
tp2014
F0.01075347017072574
tp2015
a(g1995
(F-0.1614155941585656
F-13.576774068279283
tp2016
F0.012296769669832263
tp2017
a(g1995
(F-11.305627352241798
F-0.3145552956507763
tp2018
F0.012287254494388335
tp2019
a(g1995
(F-4.225145557356537
F-5.150880737039614
tp2020
F0.016895986279231986
tp2021
a(g1995
(F-9.041449480825456
F-10.89836763663651
tp2022
F0.023064169875121783
tp2023
a(g1995
(F-5.096561875905221
F-12.089795772172923
tp2024
F0.027672291779310836
tp2025
a(g1995
(F-7.567892812431716
F-13.553857572709438
tp2026
F0.03690646132143656
tp2027
a(g1995
(F-10.380713523874968
F-16.576952419369004
tp2028
F0.04000877141140234
tp2029
a(g1995
(F-10.16422997060233
F-15.660832885062277
tp2030
F0.04769736295688977
tp2031
a(g1995
(F-11.991954778339519
F-14.412379882561053
tp2032
F0.04615417589809501
tp2033
a(g1995
(F-10.580012524725745
F-18.967260542151532
tp2034
F0.05233136781701027
tp2035
a(g1995
(F-11.721889824169311
F-16.398829801575136
tp2036
F0.07078630846694563
tp2037
a(g1995
(F-9.91444246763202
F-17.33511174122915
tp2038
F0.09079411491641258
tp2039
a(g1995
(F-10.897302775886134
F-16.32824176515138
tp2040
F0.10156106536045505
tp2041
a(g1995
(F-11.08362107441075
F-17.468534236243908
tp2042
F0.1185057699249717
tp2043
a(g1995
(F-9.997489064935515
F-15.581106178879153
tp2044
F0.13847878380681683
tp2045
a(g1995
(F-9.336255389746047
F-15.266562147245411
tp2046
F0.16309790471807714
tp2047
a(g1995
(F-9.160256521777416
F-16.68116282009936
tp2048
F0.17388616313952374
tp2049
a(g1995
(F-9.295217986344472
F-16.471116012005165
tp2050
F0.18619636540357698
tp2051
a(g1995
(F-9.861250310110576
F-17.06172915135514
tp2052
F0.18929922061298135
tp2053
a(g1995
(F-10.30790357930801
F-16.76644627849479
tp2054
F0.18775653953558952
tp2055
a(g1995
(F-9.157848045357312
F-15.743637836656383
tp2056
F0.17387431324639213
tp2057
a(g1995
(F-8.824056494132739
F-16.890120383644916
tp2058
F0.15696490378501496
tp2059
a(g1995
(F-6.790730650546194
F-14.856290328666294
tp2060
F0.12306038225611327
tp2061
a(g1995
(F-0.1614155941585656
F-13.576774068279283
tp2062
F0.012296769669832263
tp2063
a(g1995
(F8.648939328972705
F-11.014722060893758
tp2064
F0.007674051630268944
tp2065
a(g1995
(F-11.909970640996624
F-16.486452471617763
tp2066
F0.07540880162588542
tp2067
a(g1995
(F-9.444055295439703
F-17.929701927014342
tp2068
F0.12465768876861003
tp2069
a(g1995
(F-8.815706396502732
F-18.290579186884788
tp2070
F0.14928865957300197
tp2071
a(g1995
(F-9.41939171637458
F-19.90848796488541
tp2072
F0.190889608888203
tp2073
a(g1995
(F-9.39335988782092
F-20.027141400061222
tp2074
F0.20627709333112498
tp2075
a(g1995
(F-9.22673526679983
F-19.554705797069275
tp2076
F0.23244128538660513
tp2077
a(g1995
(F-8.416113595079494
F-19.058929175575347
tp2078
F0.23858079558143838
tp2079
a(g1995
(F-8.565662243401805
F-17.921272890328684
tp2080
F0.2585672335164445
tp2081
a(g1995
(F-10.660637641799116
F-19.280577326827114
tp2082
F0.2786338245380878
tp2083
a(g1995
(F-9.39302610792255
F-17.92086003557615
tp2084
F0.27242601459563415
tp2085
a(g1995
(F-9.644925419031674
F-17.4875142376593
tp2086
F0.25087263359541423
tp2087
a(g1995
(F-10.69554386357306
F-16.917937168927036
tp2088
F0.16159178440753502
tp2089
a(g1995
(F-10.192117396229046
F-17.92912996008008
tp2090
F0.11542635138451487
tp2091
a(g1995
(F-10.38005513963464
F-16.576240286946682
tp2092
F0.08001758963088487
tp2093
a(g1995
(F-9.02811774386867
F-16.18242952984399
tp2094
F0.06153853767013132
tp2095
a(g1995
(F-9.581441183547058
F-17.95341900875486
tp2096
F0.05077352840268536
tp2097
a(g1995
(F-7.547474602779377
F-22.354568247991704
tp2098
F0.03694120276407715
tp2099
a(g1995
(F6.101363994537066
F-38.186218743702234
tp2100
F0.010774835239301273
tp2101
a(g1995
(F71652.52316317766
F-86301.78089178627
tp2102
F5.688767629533076e-06
tp2103
a(g1995
(F-132.2432467055661
F106.13985907424431
tp2104
F-0.003083132507959427
tp2105
a(g1995
(F-88.57154855951974
F106.38202009996898
tp2106
F-0.0030691462532396845
tp2107
asS'M5239_inv'
p2108
(lp2109
(lp2110
F2.8717
aF0.0065
aF0.0194
aF0.0109
aF0.0032
aF0.0084
aa(lp2111
F-0.0297
aF2.8833
aF-0.0299
aF-0.0033
aF0.012
aF0.0164
aa(lp2112
F0.0547
aF0.0326
aF11.4879
aF0.002
aF-0.0101
aF-0.0158
aa(lp2113
F-0.0001
aF0.0004
aF0.0032
aF0.0489
aF0.0001
aF0.0002
aa(lp2114
F0.0004
aF-0.0009
aF-0.0007
aF-0.0002
aF0.0489
aF-0.0009
aa(lp2115
F-0.0011
aF-0.0005
aF-0.0002
aF-0.0003
aF-0.0003
aF0.0739
aasS'gridcalibration1466606897'
p2116
(lp2117
((F-44.5
F-53.0
tp2118
(F40187126.5161797
F47863319.22151739
tp2119
F-3.3658011926607917e-09
tp2120
a(g2118
(F44.5
F-53.0
tp2121
F0.001543130838638874
tp2122
a(g2118
(F44.5
F-53.0
tp2123
F0.001543130838638874
tp2124
a(g2118
(Fnan
Fnan
tp2125
F0.0
tp2126
a(g2118
(F0.33904122560512706
F-53.00000000000001
tp2127
F0.003062925541780612
tp2128
a(g2118
(F-44.5
F-53.0
tp2129
F0.004559384109425214
tp2130
a(g2118
(F-44.5
F-53.0
tp2131
F0.009118768218850428
tp2132
a(g2118
(F-44.37606036673603
F-52.91151672179613
tp2133
F0.016755064124775843
tp2134
a(g2118
(F-44.39501785620893
F-61.1442461201781
tp2135
F0.019780663910538558
tp2136
a(g2118
(F-39.19187386537853
F-46.716253778973005
tp2137
F0.025873282050154937
tp2138
a(g2118
(F-44.43173218006219
F-58.29604280865138
tp2139
F0.03041867317325818
tp2140
a(g2118
(F-44.44065461478479
F-52.95763200122653
tp2141
F0.03499204690320418
tp2142
a(g2118
(F-44.454490161147554
F-52.96750950744209
tp2143
F0.04563005616592382
tp2144
a(g2118
(F-42.023180900683215
F-52.97366337635469
tp2145
F0.05629206766372488
tp2146
a(g2118
(F-42.36846832870566
F-52.9773349020805
tp2147
F0.06541083588257529
tp2148
a(g2118
(F-42.62924936649016
F-52.98010785067729
tp2149
F0.07452905044215319
tp2150
a(g2118
(F-44.452250818791654
F-52.96572529717306
tp2151
F0.08822174268564728
tp2152
a(g2118
(F-44.45384117367727
F-52.96686686525265
tp2153
F0.09126133209193074
tp2154
a(g2118
(F-43.20755088772992
F-52.97239108445084
tp2155
F0.1095216510058562
tp2156
a(g2118
(F-45.60536759054049
F-55.7041255136696
tp2157
F0.11860198278311614
tp2158
a(g2118
(F-44.468158085253116
F-52.97714364649253
tp2159
F0.13229468175821257
tp2160
a(g2118
(F-44.45441262035504
F-54.1552977374234
tp2161
F0.13687684497683503
tp2162
a(g2118
(F-44.471732986520294
F-51.88875049653544
tp2163
F0.14902585945402005
tp2164
a(g2118
(F-44.47143903511909
F-52.97949873570664
tp2165
F0.14749207513035745
tp2166
a(g2118
(F-45.44743212121646
F-54.142808171685374
tp2167
F0.1383727498852071
tp2168
a(g2118
(F-45.44752791721679
F-55.31799307107179
tp2169
F0.13835876026468627
tp2170
a(g2118
(F-44.470527974056026
F-52.97884476957772
tp2171
F0.1429326910209322
tp2172
a(g2118
(F-44.46988760754183
F-52.97838510992663
tp2173
F0.13989310161464874
tp2174
a(g2118
(F-44.472569632207495
F-52.980310286360314
tp2175
F0.1535712539429244
tp2176
a(g2118
(F-44.46955687428425
F-52.97814770723549
tp2177
F0.138373306911507
tp2178
a(g2118
(F-44.46921891979384
F-52.977905121091915
tp2179
F0.13685406586763782
tp2180
a(g2118
(F-44.46921891979384
F-52.977905121091915
tp2181
F0.13685406586763782
tp2182
a(g2118
(F-45.457953650090246
F-54.15549941246804
tp2183
F0.13685295518206536
tp2184
a(g2118
(F-44.46621763461322
F-52.97575077718357
tp2185
F0.12469570824250392
tp2186
a(g2118
(F-44.45603085010544
F-54.665418411248325
tp2187
F0.09580617292156252
tp2188
a(g2118
(F-42.66663529783829
F-52.980505384434935
tp2189
F0.07604884514529492
tp2190
a(g2118
(F-44.469651833162374
F-52.97833376444199
tp2191
F0.06842642305377734
tp2192
a(g2118
(F-42.023180900683215
F-52.97366337635469
tp2193
F0.05629206766372488
tp2194
a(g2118
(F-39.74761388974692
F-53.0
tp2195
F0.028898881835917635
tp2196
a(g2118
(F-44.34828367568339
F-76.6478422330387
tp2197
F0.013687495477450731
tp2198
a(g2118
(F-74.25806140167244
F-124.21053499026674
tp2199
F0.004545391123103165
tp2200
a(g2118
(F-44.50000000000001
F-106.7351764345315
tp2201
F0.0030255997857626194
tp2202
asS'gridcalibration1466606898'
p2203
(lp2204
((F-44.5
F-53.0
tp2205
(F40187126.5161797
F47863319.22151739
tp2206
F-3.3658011926607917e-09
tp2207
a(g2205
(F44.5
F-53.0
tp2208
F0.001543130838638874
tp2209
a(g2205
(F44.5
F-53.0
tp2210
F0.001543130838638874
tp2211
a(g2205
(Fnan
Fnan
tp2212
F0.0
tp2213
a(g2205
(F0.33904122560512706
F-53.00000000000001
tp2214
F0.003062925541780612
tp2215
a(g2205
(F-44.5
F-53.0
tp2216
F0.004559384109425214
tp2217
a(g2205
(F-44.5
F-53.0
tp2218
F0.009118768218850428
tp2219
a(g2205
(F-44.37606036673603
F-52.91151672179613
tp2220
F0.016755064124775843
tp2221
a(g2205
(F-44.39501785620893
F-61.1442461201781
tp2222
F0.019780663910538558
tp2223
a(g2205
(F-39.19187386537853
F-46.716253778973005
tp2224
F0.025873282050154937
tp2225
a(g2205
(F-44.43173218006219
F-58.29604280865138
tp2226
F0.03041867317325818
tp2227
a(g2205
(F-44.44065461478479
F-52.95763200122653
tp2228
F0.03499204690320418
tp2229
a(g2205
(F-44.454490161147554
F-52.96750950744209
tp2230
F0.04563005616592382
tp2231
a(g2205
(F-42.023180900683215
F-52.97366337635469
tp2232
F0.05629206766372488
tp2233
a(g2205
(F-42.36846832870566
F-52.9773349020805
tp2234
F0.06541083588257529
tp2235
a(g2205
(F-42.62924936649016
F-52.98010785067729
tp2236
F0.07452905044215319
tp2237
a(g2205
(F-44.452250818791654
F-52.96572529717306
tp2238
F0.08822174268564728
tp2239
a(g2205
(F-44.45384117367727
F-52.96686686525265
tp2240
F0.09126133209193074
tp2241
a(g2205
(F-43.20755088772992
F-52.97239108445084
tp2242
F0.1095216510058562
tp2243
a(g2205
(F-45.60536759054049
F-55.7041255136696
tp2244
F0.11860198278311614
tp2245
a(g2205
(F-44.468158085253116
F-52.97714364649253
tp2246
F0.13229468175821257
tp2247
a(g2205
(F-44.45441262035504
F-54.1552977374234
tp2248
F0.13687684497683503
tp2249
a(g2205
(F-44.471732986520294
F-51.88875049653544
tp2250
F0.14902585945402005
tp2251
a(g2205
(F-44.47143903511909
F-52.97949873570664
tp2252
F0.14749207513035745
tp2253
a(g2205
(F-45.44743212121646
F-54.142808171685374
tp2254
F0.1383727498852071
tp2255
a(g2205
(F-45.44752791721679
F-55.31799307107179
tp2256
F0.13835876026468627
tp2257
a(g2205
(F-44.470527974056026
F-52.97884476957772
tp2258
F0.1429326910209322
tp2259
a(g2205
(F-44.46988760754183
F-52.97838510992663
tp2260
F0.13989310161464874
tp2261
a(g2205
(F-44.472569632207495
F-52.980310286360314
tp2262
F0.1535712539429244
tp2263
a(g2205
(F-44.46955687428425
F-52.97814770723549
tp2264
F0.138373306911507
tp2265
a(g2205
(F-44.46921891979384
F-52.977905121091915
tp2266
F0.13685406586763782
tp2267
a(g2205
(F-44.46921891979384
F-52.977905121091915
tp2268
F0.13685406586763782
tp2269
a(g2205
(F-45.457953650090246
F-54.15549941246804
tp2270
F0.13685295518206536
tp2271
a(g2205
(F-44.46621763461322
F-52.97575077718357
tp2272
F0.12469570824250392
tp2273
a(g2205
(F-44.45603085010544
F-54.665418411248325
tp2274
F0.09580617292156252
tp2275
a(g2205
(F-42.66663529783829
F-52.980505384434935
tp2276
F0.07604884514529492
tp2277
a(g2205
(F-44.469651833162374
F-52.97833376444199
tp2278
F0.06842642305377734
tp2279
a(g2205
(F-42.023180900683215
F-52.97366337635469
tp2280
F0.05629206766372488
tp2281
a(g2205
(F-39.74761388974692
F-53.0
tp2282
F0.028898881835917635
tp2283
a(g2205
(F-44.34828367568339
F-76.6478422330387
tp2284
F0.013687495477450731
tp2285
a(g2205
(F-74.25806140167244
F-124.21053499026674
tp2286
F0.004545391123103165
tp2287
a(g2205
(F-44.50000000000001
F-106.7351764345315
tp2288
F0.0030255997857626194
tp2289
asS'gridcalibration1466437794'
p2290
(lp2291
(lp2292
(F-44.5
F-53.0
tp2293
a(lp2294
F12.494206978764831
aF14.88074089605699
aaF-0.004533558058977444
aa(lp2295
(F-44.5
F-35.33333333333333
tp2296
a(lp2297
F12.494206978764831
aF14.88074089605699
aaF-0.004533558058977444
aa(lp2298
(F-44.5
F-17.666666666666664
tp2299
a(lp2300
F15.050029255948804
aF17.924753945287335
aaF-0.00301320632953579
aa(lp2301
(F-44.5
F0.0
tp2302
a(lp2303
F15.050029255948804
aF17.924753945287335
aaF-0.00301320632953579
aa(lp2304
(F-44.5
F17.66666666666667
tp2305
a(lp2306
F38.724523627677655
aF46.121342747571134
aaF-0.001467572112741589
aa(lp2307
(F-44.5
F35.33333333333334
tp2308
a(lp2309
F38.724523627677655
aF46.121342747571134
aaF-0.001467572112741589
aa(lp2310
(F-44.5
F53.0
tp2311
a(lp2312
F38.724523627677655
aF46.121342747571134
aaF-0.001467572112741589
aa(lp2313
(F-26.7
F-53.0
tp2314
a(lp2315
F38.724523627677655
aF46.121342747571134
aaF-0.001467572112741589
aa(lp2316
(F-26.7
F-35.33333333333333
tp2317
a(lp2318
F38.724523627677655
aF46.121342747571134
aaF-0.001467572112741589
aa(lp2319
(F-26.7
F-17.666666666666664
tp2320
a(lp2321
F38.724523627677655
aF46.121342747571134
aaF-0.001467572112741589
aa(lp2322
(F-26.7
F0.0
tp2323
a(lp2324
F38.724523627677655
aF46.121342747571134
aaF-0.001467572112741589
aa(lp2325
(F-26.7
F17.66666666666667
tp2326
a(lp2327
F38.724523627677655
aF46.121342747571134
aaF-0.001467572112741589
aa(lp2328
(F-26.7
F35.33333333333334
tp2329
a(lp2330
F38.724523627677655
aF46.121342747571134
aaF-0.001467572112741589
aa(lp2331
(F-26.7
F53.0
tp2332
a(lp2333
F38.724523627677655
aF46.121342747571134
aaF-0.001467572112741589
aa(lp2334
(F-8.899999999999999
F-53.0
tp2335
a(lp2336
F38.724523627677655
aF46.121342747571134
aaF-0.001467572112741589
aa(lp2337
(F-8.899999999999999
F-35.33333333333333
tp2338
a(lp2339
F38.724523627677655
aF46.121342747571134
aaF-0.001467572112741589
aa(lp2340
(F-8.899999999999999
F-17.666666666666664
tp2341
a(lp2342
F38.724523627677655
aF46.121342747571134
aaF-0.001467572112741589
aa(lp2343
(F-8.899999999999999
F0.0
tp2344
a(lp2345
F38.724523627677655
aF46.121342747571134
aaF-0.001467572112741589
aa(lp2346
(F-8.899999999999999
F17.66666666666667
tp2347
a(lp2348
F38.724523627677655
aF46.121342747571134
aaF-0.001467572112741589
aa(lp2349
(F-8.899999999999999
F35.33333333333334
tp2350
a(lp2351
F38.724523627677655
aF46.121342747571134
aaF-0.001467572112741589
aa(lp2352
(F-8.899999999999999
F53.0
tp2353
a(lp2354
F38.724523627677655
aF46.121342747571134
aaF-0.001467572112741589
aa(lp2355
(F8.900000000000006
F-53.0
tp2356
a(lp2357
F38.724523627677655
aF46.121342747571134
aaF-0.001467572112741589
aa(lp2358
(F8.900000000000006
F-35.33333333333333
tp2359
a(lp2360
F38.724523627677655
aF46.121342747571134
aaF-0.001467572112741589
aa(lp2361
(F8.900000000000006
F-17.666666666666664
tp2362
a(lp2363
F38.724523627677655
aF46.121342747571134
aaF-0.001467572112741589
aa(lp2364
(F8.900000000000006
F0.0
tp2365
a(lp2366
F38.724523627677655
aF46.121342747571134
aaF-0.001467572112741589
aa(lp2367
(F8.900000000000006
F17.66666666666667
tp2368
a(lp2369
F38.724523627677655
aF46.121342747571134
aaF-0.001467572112741589
aa(lp2370
(F8.900000000000006
F35.33333333333334
tp2371
a(lp2372
F38.724523627677655
aF46.121342747571134
aaF-0.001467572112741589
aa(lp2373
(F8.900000000000006
F53.0
tp2374
a(lp2375
F38.724523627677655
aF46.121342747571134
aaF-0.001467572112741589
aa(lp2376
(F26.700000000000003
F-53.0
tp2377
a(lp2378
F38.724523627677655
aF46.121342747571134
aaF-0.001467572112741589
aa(lp2379
(F26.700000000000003
F-35.33333333333333
tp2380
a(lp2381
F38.724523627677655
aF46.121342747571134
aaF-0.001467572112741589
aa(lp2382
(F26.700000000000003
F-17.666666666666664
tp2383
a(lp2384
F38.724523627677655
aF46.121342747571134
aaF-0.001467572112741589
aa(lp2385
(F26.700000000000003
F0.0
tp2386
a(lp2387
F38.724523627677655
aF46.121342747571134
aaF-0.001467572112741589
aa(lp2388
(F26.700000000000003
F17.66666666666667
tp2389
a(lp2390
F38.724523627677655
aF46.121342747571134
aaF-0.001467572112741589
aa(lp2391
(F26.700000000000003
F35.33333333333334
tp2392
a(lp2393
F38.724523627677655
aF46.121342747571134
aaF-0.001467572112741589
aa(lp2394
(F26.700000000000003
F53.0
tp2395
a(lp2396
F38.724523627677655
aF46.121342747571134
aaF-0.001467572112741589
aa(lp2397
(F44.5
F-53.0
tp2398
a(lp2399
F38.724523627677655
aF46.121342747571134
aaF-0.001467572112741589
aa(lp2400
(F44.5
F-35.33333333333333
tp2401
a(lp2402
F38.724523627677655
aF46.121342747571134
aaF-0.001467572112741589
aa(lp2403
(F44.5
F-17.666666666666664
tp2404
a(lp2405
F38.724523627677655
aF46.121342747571134
aaF-0.001467572112741589
aa(lp2406
(F44.5
F0.0
tp2407
a(lp2408
F38.724523627677655
aF46.121342747571134
aaF-0.001467572112741589
aa(lp2409
(F44.5
F17.66666666666667
tp2410
a(lp2411
F38.724523627677655
aF46.121342747571134
aaF-0.001467572112741589
aa(lp2412
(F44.5
F35.33333333333334
tp2413
a(lp2414
F38.724523627677655
aF46.121342747571134
aaF-0.001467572112741589
aa(lp2415
(F44.5
F53.0
tp2416
a(lp2417
F38.724523627677655
aF46.121342747571134
aaF-0.001467572112741589
aasS'gridcalibration1466528020'
p2418
(lp2419
(lp2420
(F-44.5
F-53.0
tp2421
a(lp2422
F-7.416982062117961
aF-7.9151079836429465
aaF0.02936612002994815
aa(lp2423
(F-44.5
F-35.33333333333333
tp2424
a(lp2425
F-8.159771400284262
aF-6.203889502956689
aaF0.030890557838634387
aa(lp2426
(F-44.5
F-17.666666666666664
tp2427
a(lp2428
F-7.428787106741153
aF-2.6852777631212104
aaF0.030829735083962716
aa(lp2429
(F-44.5
F0.0
tp2430
a(lp2431
F-7.4287871067411535
aF-0.034226119039265146
aaF0.02771420810843752
aa(lp2432
(F-44.5
F17.66666666666667
tp2433
a(lp2434
F-7.428787106741153
aF2.918850802827652
aaF0.032291861293162014
aa(lp2435
(F-44.5
F35.33333333333334
tp2436
a(lp2437
F-7.438490209413855
aF6.618994664692216
aaF0.03683360949409258
aa(lp2438
(F-44.5
F53.0
tp2439
a(lp2440
F-7.4381110908225425
aF8.846691097321385
aaF0.0383312853826868
aa(lp2441
(F-26.7
F-53.0
tp2442
a(lp2443
F-4.581494234164232
aF-7.501784499952954
aaF0.04013789823059545
aa(lp2444
(F-26.7
F-35.33333333333333
tp2445
a(lp2446
F-4.463353282678312
aF-5.333883630851739
aaF0.04627058836724631
aa(lp2447
(F-26.7
F-17.666666666666664
tp2448
a(lp2449
F-5.057402551545468
aF-3.2182613729301766
aaF0.03852411866542952
aa(lp2450
(F-26.7
F0.0
tp2451
a(lp2452
F-4.466328504797283
aF-0.3931219028814361
aaF0.03846272774300857
aa(lp2453
(F-26.7
F17.66666666666667
tp2454
a(lp2455
F-4.470984808660501
aF2.4402230827071687
aaF0.03840329163341909
aa(lp2456
(F-26.7
F35.33333333333334
tp2457
a(lp2458
F-4.021673047444369
aF5.418370961158486
aaF0.03986409481295933
aa(lp2459
(F-26.7
F53.0
tp2460
a(lp2461
F-4.865371596762788
aF8.071458762466694
aaF0.035231831902320106
aa(lp2462
(F-8.899999999999999
F-53.0
tp2463
a(lp2464
F-2.4800198308518753
aF-8.196866170143728
aaF0.041697686465742435
aa(lp2465
(F-8.899999999999999
F-35.33333333333333
tp2466
a(lp2467
F-2.09210315414976
aF-5.3391292531174726
aaF0.03853650333876159
aa(lp2468
(F-8.899999999999999
F-17.666666666666664
tp2469
a(lp2470
F-2.299128587069443
aF-2.763281470843711
aaF0.04002275766612208
aa(lp2471
(F-8.899999999999999
F0.0
tp2472
a(lp2473
F-1.3741485241210045
aF-0.05001943024890572
aaF0.03379333037892978
aa(lp2474
(F-8.899999999999999
F17.66666666666667
tp2475
a(lp2476
F-1.3737857764313604
aF3.176156849992435
aaF0.03373377673385369
aa(lp2477
(F-8.899999999999999
F35.33333333333334
tp2478
a(lp2479
F-1.3817548212529367
aF6.411638464675877
aaF0.03366329896788682
aa(lp2480
(F-8.899999999999999
F53.0
tp2481
a(lp2482
F-1.2012014076184416
aF10.733314681321863
aaF0.029005762981970676
aa(lp2483
(F8.900000000000006
F-53.0
tp2484
a(lp2485
F1.7557295623894076
aF-8.855706385723874
aaF0.03241480628255768
aa(lp2486
(F8.900000000000006
F-35.33333333333333
tp2487
a(lp2488
F1.1607025480047413
aF-6.0839618252196
aaF0.029281503508260684
aa(lp2489
(F8.900000000000006
F-17.666666666666664
tp2490
a(lp2491
F1.7493540398729812
aF-3.0017646342487327
aaF0.032285419542976077
aa(lp2492
(F8.900000000000006
F0.0
tp2493
a(lp2494
F2.2103327089790445
aF0.8299933149874805
aaF0.030669307560214923
aa(lp2495
(F8.900000000000006
F17.66666666666667
tp2496
a(lp2497
F1.2920069318001253
aF2.5550865403179346
aaF0.02605117304023911
aa(lp2498
(F8.900000000000006
F35.33333333333334
tp2499
a(lp2500
F1.457669222516853
aF6.701634355153153
aaF0.03819232972743257
aa(lp2501
(F8.900000000000006
F53.0
tp2502
a(lp2503
F2.2050211245203384
aF10.642727326359958
aaF0.030469616032034873
aa(lp2504
(F26.700000000000003
F-53.0
tp2505
a(lp2506
F4.188820669817333
aF-8.855017880375277
aaF0.03549355782536947
aa(lp2507
(F26.700000000000003
F-35.33333333333333
tp2508
a(lp2509
F4.110402425020815
aF-6.266483978138679
aaF0.04157514103898468
aa(lp2510
(F26.700000000000003
F-17.666666666666664
tp2511
a(lp2512
F4.444437106095521
aF-3.241024790212639
aaF0.0384156733369612
aa(lp2513
(F26.700000000000003
F0.0
tp2514
a(lp2515
F5.186669743120425
aF-0.06508858620574152
aaF0.030648290627908317
aa(lp2516
(F26.700000000000003
F17.66666666666667
tp2517
a(lp2518
F4.44453175288888
aF3.133750539392273
aaF0.03823990215876695
aa(lp2519
(F26.700000000000003
F35.33333333333334
tp2520
a(lp2521
F4.834512587659945
aF7.291648101861359
aaF0.035068454139836294
aa(lp2522
(F26.700000000000003
F53.0
tp2523
a(lp2524
F4.44456929745021
aF9.567230500503058
aaF0.03806341297650742
aa(lp2525
(F44.5
F-53.0
tp2526
a(lp2527
F7.422779979608209
aF-8.856547611920073
aaF0.0293086300203491
aa(lp2528
(F44.5
F-35.33333333333333
tp2529
a(lp2530
F7.423811930106903
aF-5.815163958260194
aaF0.035387822296120745
aa(lp2531
(F44.5
F-17.666666666666664
tp2532
a(lp2533
F8.136385256042692
aF-2.1751786919213116
aaF0.03220516396034499
aa(lp2534
(F44.5
F0.0
tp2535
a(lp2536
F8.081437081665356
aF1.0881155108493286
aaF0.03518635710601904
aa(lp2537
(F44.5
F17.66666666666667
tp2538
a(lp2539
F7.433798850475903
aF3.407592052243701
aaF0.0351296227306845
aa(lp2540
(F44.5
F35.33333333333334
tp2541
a(lp2542
F6.238012249236433
aF5.983996568059098
aaF0.03812691196814228
aa(lp2543
(F44.5
F53.0
tp2544
a(lp2545
F8.095647227040681
aF9.632485969662524
aaF0.03495205338285322
aasS'gridcalibration1466605224'
p2546
(lp2547
((F-8.899999999999999
F-17.666666666666664
tp2548
(F44.5
F53.0
tp2549
F0.0015197980689429307
tp2550
a(g2548
(F-9715.568548876632
F53.000000000000696
tp2551
F-1.3986254719664101e-05
tp2552
a(g2548
(F-0.20428203269435438
F-0.3515458627237386
tp2553
F0.009207835953931539
tp2554
a(g2548
(F14.499011030213616
F17.26848504722071
tp2555
F0.004585230354679984
tp2556
a(g2548
(F-22.487744216778484
F-0.32504616118234037
tp2557
F0.006144850826193928
tp2558
a(g2548
(F-5.0784872983763885
F-6.193525903818032
tp2559
F0.013830553993494858
tp2560
a(g2548
(F-0.26121450662106177
F-18.05334390341226
tp2561
F0.009219685847063145
tp2562
a(g2548
(F-0.20428203269435438
F-0.3515458627237386
tp2563
F0.009207835953931539
tp2564
a(g2548
(F-0.20428203269435438
F-0.3515458627237386
tp2565
F0.009207835953931539
tp2566
a(g2548
(F-6.5710618963811545
F-7.918893973050294
tp2567
F0.01075347017072574
tp2568
a(g2548
(F-0.1614155941585656
F-13.576774068279283
tp2569
F0.012296769669832263
tp2570
a(g2548
(F-11.305627352241798
F-0.3145552956507763
tp2571
F0.012287254494388335
tp2572
a(g2548
(F-4.225145557356537
F-5.150880737039614
tp2573
F0.016895986279231986
tp2574
a(g2548
(F-9.041449480825456
F-10.89836763663651
tp2575
F0.023064169875121783
tp2576
a(g2548
(F-5.096561875905221
F-12.089795772172923
tp2577
F0.027672291779310836
tp2578
a(g2548
(F-7.567892812431716
F-13.553857572709438
tp2579
F0.03690646132143656
tp2580
a(g2548
(F-10.380713523874968
F-16.576952419369004
tp2581
F0.04000877141140234
tp2582
a(g2548
(F-10.16422997060233
F-15.660832885062277
tp2583
F0.04769736295688977
tp2584
a(g2548
(F-11.991954778339519
F-14.412379882561053
tp2585
F0.04615417589809501
tp2586
a(g2548
(F-10.580012524725745
F-18.967260542151532
tp2587
F0.05233136781701027
tp2588
a(g2548
(F-11.721889824169311
F-16.398829801575136
tp2589
F0.07078630846694563
tp2590
a(g2548
(F-9.91444246763202
F-17.33511174122915
tp2591
F0.09079411491641258
tp2592
a(g2548
(F-10.897302775886134
F-16.32824176515138
tp2593
F0.10156106536045505
tp2594
a(g2548
(F-11.08362107441075
F-17.468534236243908
tp2595
F0.1185057699249717
tp2596
a(g2548
(F-9.997489064935515
F-15.581106178879153
tp2597
F0.13847878380681683
tp2598
a(g2548
(F-9.336255389746047
F-15.266562147245411
tp2599
F0.16309790471807714
tp2600
a(g2548
(F-9.160256521777416
F-16.68116282009936
tp2601
F0.17388616313952374
tp2602
a(g2548
(F-9.295217986344472
F-16.471116012005165
tp2603
F0.18619636540357698
tp2604
a(g2548
(F-9.861250310110576
F-17.06172915135514
tp2605
F0.18929922061298135
tp2606
a(g2548
(F-10.30790357930801
F-16.76644627849479
tp2607
F0.18775653953558952
tp2608
a(g2548
(F-9.157848045357312
F-15.743637836656383
tp2609
F0.17387431324639213
tp2610
a(g2548
(F-8.824056494132739
F-16.890120383644916
tp2611
F0.15696490378501496
tp2612
a(g2548
(F-6.790730650546194
F-14.856290328666294
tp2613
F0.12306038225611327
tp2614
a(g2548
(F-0.1614155941585656
F-13.576774068279283
tp2615
F0.012296769669832263
tp2616
a(g2548
(F8.648939328972705
F-11.014722060893758
tp2617
F0.007674051630268944
tp2618
a(g2548
(F-11.909970640996624
F-16.486452471617763
tp2619
F0.07540880162588542
tp2620
a(g2548
(F-9.444055295439703
F-17.929701927014342
tp2621
F0.12465768876861003
tp2622
a(g2548
(F-8.815706396502732
F-18.290579186884788
tp2623
F0.14928865957300197
tp2624
a(g2548
(F-9.41939171637458
F-19.90848796488541
tp2625
F0.190889608888203
tp2626
a(g2548
(F-9.39335988782092
F-20.027141400061222
tp2627
F0.20627709333112498
tp2628
a(g2548
(F-9.22673526679983
F-19.554705797069275
tp2629
F0.23244128538660513
tp2630
a(g2548
(F-8.416113595079494
F-19.058929175575347
tp2631
F0.23858079558143838
tp2632
a(g2548
(F-8.565662243401805
F-17.921272890328684
tp2633
F0.2585672335164445
tp2634
a(g2548
(F-10.660637641799116
F-19.280577326827114
tp2635
F0.2786338245380878
tp2636
a(g2548
(F-9.39302610792255
F-17.92086003557615
tp2637
F0.27242601459563415
tp2638
a(g2548
(F-9.644925419031674
F-17.4875142376593
tp2639
F0.25087263359541423
tp2640
a(g2548
(F-10.69554386357306
F-16.917937168927036
tp2641
F0.16159178440753502
tp2642
a(g2548
(F-10.192117396229046
F-17.92912996008008
tp2643
F0.11542635138451487
tp2644
a(g2548
(F-10.38005513963464
F-16.576240286946682
tp2645
F0.08001758963088487
tp2646
a(g2548
(F-9.02811774386867
F-16.18242952984399
tp2647
F0.06153853767013132
tp2648
a(g2548
(F-9.581441183547058
F-17.95341900875486
tp2649
F0.05077352840268536
tp2650
a(g2548
(F-7.547474602779377
F-22.354568247991704
tp2651
F0.03694120276407715
tp2652
a(g2548
(F6.101363994537066
F-38.186218743702234
tp2653
F0.010774835239301273
tp2654
a(g2548
(F71652.52316317766
F-86301.78089178627
tp2655
F5.688767629533076e-06
tp2656
a(g2548
(F-132.2432467055661
F106.13985907424431
tp2657
F-0.003083132507959427
tp2658
a(g2548
(F-88.57154855951974
F106.38202009996898
tp2659
F-0.0030691462532396845
tp2660
asS'gridcalibration1466606548'
p2661
(lp2662
((F-44.5
F-53.0
tp2663
(F-22.249963043181957
F-26.499955984014473
tp2664
F0.006079182178368145
tp2665
a(g2663
(F-90.04038535608825
F-53.0
tp2666
F0.003016084610318692
tp2667
a(g2663
(F-90.04038535608825
F-53.0
tp2668
F0.003016084610318692
tp2669
a(g2663
(F-44.5
F-53.0
tp2670
F0.006079178812566952
tp2671
a(g2663
(F-45.89787254432857
F54.665120345898615
tp2672
F0.0014962932729781463
tp2673
a(g2663
(F43.70048486137619
F51.400099030510596
tp2674
F-0.0015572891196273793
tp2675
a(g2663
(F5799.1438089599915
F-52.99999999999966
tp2676
F-2.3504795964784464e-05
tp2677
a(g2663
(F-45.89787254432857
F54.665120345898615
tp2678
F0.0014962932729781463
tp2679
a(g2663
(F-62.96316253328086
F-31.668313753322515
tp2680
F0.007552079729892078
tp2681
a(g2663
(F-59.601668751547
F-53.00000000000001
tp2682
F0.009095263422885644
tp2683
a(g2663
(F-44.653180575627076
F-41.20192500635627
tp2684
F0.01365465089811205
tp2685
a(g2663
(F-37.08331827684635
F-44.166648734221496
tp2686
F0.01823753980350205
tp2687
a(g2663
(F-52.72760908004974
F-53.0
tp2688
F0.016694236938594335
tp2689
a(g2663
(F-52.041090194756485
F-53.0
tp2690
F0.018214031641736093
tp2691
a(g2663
(F-51.4603154005727
F-52.99999999999999
tp2692
F0.01973382634487783
tp2693
a(g2663
(F-51.4603154005727
F-52.99999999999999
tp2694
F0.01973382634487783
tp2695
a(g2663
(F-52.041090194756485
F-53.0
tp2696
F0.018214031641736093
tp2697
a(g2663
(F-50.962600189875836
F-52.99999999999999
tp2698
F0.02125362104801957
tp2699
a(g2663
(F-44.5
F-47.65357710349197
tp2700
F0.030409330024083015
tp2701
a(g2663
(F-48.60925808768024
F-48.13600234771967
tp2702
F0.033425414634401705
tp2703
a(g2663
(F-51.9774954080609
F-57.41791480159499
tp2704
F0.03645156471486193
tp2705
a(g2663
(F-47.61714155275004
F-49.310339026926194
tp2706
F0.044063977556393887
tp2707
a(g2663
(F-50.68758405051353
F-56.65579885658074
tp2708
F0.044050538230570646
tp2709
a(g2663
(F-49.937282200080475
F-56.212499400038254
tp2710
F0.05012916338386505
tp2711
a(g2663
(F-49.220408204522236
F-52.97330837802441
tp2712
F0.05774212652009452
tp2713
a(g2663
(F-46.52160552494167
F-52.97695660300388
tp2714
F0.0668838458756372
tp2715
a(g2663
(F-48.20771528075784
F-55.187646024354734
tp2716
F0.07296246766190422
tp2717
a(g2663
(F-47.568543373042175
F-54.81051839267001
tp2718
F0.08816041469332164
tp2719
a(g2663
(F-47.19665928968406
F-54.59109735440925
tp2720
F0.10031821865918301
tp2721
a(g2663
(F-48.25968584348131
F-55.971299735009936
tp2722
F0.10791774246958923
tp2723
a(g2663
(F-48.07874384251887
F-54.40048094805964
tp2724
F0.11397231253222131
tp2725
a(g2663
(F-47.985779693647586
F-54.364100998816
tp2726
F0.11701190193850479
tp2727
a(g2663
(F-47.83677922874466
F-55.63707438624053
tp2728
F0.12159534113859233
tp2729
a(g2663
(F-50.16893084556473
F-55.671495193155955
tp2730
F0.12002864928383282
tp2731
a(g2663
(F-48.96775324414404
F-56.97536737398545
tp2732
F0.12155784672210676
tp2733
a(g2663
(F-48.607791379357685
F-55.42535613088858
tp2734
F0.13220984560534718
tp2735
a(g2663
(F-49.26411017141883
F-55.24509660980754
tp2736
F0.14282501617168636
tp2737
a(g2663
(F-47.19527128734873
F-52.96927778168371
tp2738
F0.050166657800350616
tp2739
a(g2663
(F-44.5
F-53.0
tp2740
F0.003039589406283476
tp2741
a(g2663
(F-136.2961517762459
F-53.00000000000001
tp2742
F0.0014962899071769536
tp2743
a(g2663
(F5799.1438089599915
F-52.99999999999966
tp2744
F-2.3504795964784464e-05
tp2745
a(g2663
(F-44.5
F-53.0
tp2746
F0.004559384109425214
tp2747
a(g2663
(F-44.5
F-53.0
tp2748
F0.004559384109425214
tp2749
a(g2663
(F-47.32469307469654
F-56.385253324938766
tp2750
F0.04715040116253691
tp2751
a(g2663
(F-47.7684007129607
F-54.924945576937574
tp2752
F0.08211911193147019
tp2753
a(g2663
(F-45.71366282886551
F-54.46394695886814
tp2754
F0.10797851680141611
tp2755
a(g2663
(F-44.46620070606881
F-52.97592792906408
tp2756
F0.12317535987886344
tp2757
a(g2663
(F-43.5787280018642
F-52.980695305171295
tp2758
F0.1535940364179228
tp2759
a(g2663
(F-45.29067880537193
F-52.972811426045325
tp2760
F0.16574304416350544
tp2761
a(g2663
(F-44.47555376227761
F-52.027924845726275
tp2762
F0.1703018779782331
tp2763
a(g2663
(F-44.48001283066301
F-52.205234321232126
tp2764
F0.20829563823823152
tp2765
a(g2663
(F-45.09445139345844
F-52.979558974436024
tp2766
F0.22045454615806298
tp2767
a(g2663
(F-45.03871113638454
F-52.31314606632321
tp2768
F0.24326490266643738
tp2769
a(g2663
(F-44.47662989974744
F-52.9832547524322
tp2770
F0.2691102054755507
tp2771
a(g2663
(F-44.47622712925829
F-52.982966157540396
tp2772
F0.2645508213661254
tp2773
a(g2663
(F-44.47727164278524
F-52.983714576991225
tp2774
F0.27670862533198687
tp2775
a(g2663
(F-44.47622712925829
F-52.982966157540396
tp2776
F0.2645508213661254
tp2777
a(g2663
(F-45.010062161973366
F-52.98246081377411
tp2778
F0.2569285117149196
tp2779
a(g2663
(F-44.48340342352274
F-52.340057156329735
tp2780
F0.2508493362669277
tp2781
a(g2663
(F-44.48379519741779
F-52.988458837097156
tp2782
F0.2569139717997012
tp2783
a(g2663
(F-44.987015633573336
F-52.98325330022694
tp2784
F0.2690868693400535
tp2785
a(g2663
(F-44.47856657346841
F-52.98464242645009
tp2786
F0.29342636706654596
tp2787
a(g2663
(F-44.47856657346841
F-52.98464242645009
tp2788
F0.29342636706654596
tp2789
a(g2663
(F-44.93503442571839
F-53.52819649829305
tp2790
F0.29646595310702817
tp2791
a(g2663
(F-44.47878632489283
F-52.98479988371238
tp2792
F0.2964659564728295
tp2793
a(g2663
(F-44.96348113327621
F-53.559061198394545
tp2794
F0.2827504783885358
tp2795
a(g2663
(F-44.47595081314933
F-52.982768170300226
tp2796
F0.261511231959842
tp2797
a(g2663
(F-44.47446699496459
F-52.98170497833355
tp2798
F0.24631383858769712
tp2799
a(g2663
(F-45.224322577711085
F-53.87369392030477
tp2800
F0.18092700157440197
tp2801
a(g2663
(F-45.66794785608493
F-52.97399815944553
tp2802
F0.11403369674347665
tp2803
a(g2663
(F-42.89133327514599
F-51.10705103208059
tp2804
F0.08670195134830669
tp2805
a(g2663
(F-46.251854295263634
F-55.09950972407386
tp2806
F0.07602539320368484
tp2807
a(g2663
(F-44.468931956526426
F-52.97747626612856
tp2808
F0.06842697671427607
tp2809
a(g2663
(F-46.804707996861126
F-55.76207722505401
tp2810
F0.05778841042525653
tp2811
a(g2663
(F-44.43346817059426
F-52.95176570353425
tp2812
F0.031953011157419414
tp2813
a(g2663
(F-50.431185838365344
F-60.06410897603064
tp2814
F0.022796917182551075
tp2815
a(g2663
(F-50.060486672175834
F-59.622602103939755
tp2816
F0.024316711885692812
tp2817
a(g2663
(F-49.44012843282558
F-52.94368963712998
tp2818
F0.02737029091249707
tp2819
a((F-44.5
F-35.33333333333333
tp2820
(F-44.5
F-53.0
tp2821
F0.003039589406283476
tp2822
a(g2820
(F-44.5
F-53.0
tp2823
F0.003039589406283476
tp2824
a(g2820
(F-44.5
F-53.0
tp2825
F0.003039589406283476
tp2826
a(g2820
(F-44.5
F-29.276145098127166
tp2827
F0.013706131569317277
tp2828
a(g2820
(F-44.5
F-32.976610695164204
tp2829
F0.02435868411183032
tp2830
a(g2820
(F-44.5
F-31.643727322370424
tp2831
F0.0532896346350616
tp2832
a(g2820
(F-46.47346073297776
F-33.99510165383933
tp2833
F0.06851555244654477
tp2834
a(g2820
(F-47.616853944712254
F-34.234667898544096
tp2835
F0.08679394706023566
tp2836
a(g2820
(F-47.15167998581651
F-33.84804995565696
tp2837
F0.10201987333269477
tp2838
a(g2820
(F-46.90099015798178
F-34.215714141591484
tp2839
F0.11267187221593516
tp2840
a(g2820
(F-46.83791927333063
F-34.70915286839826
tp2841
F0.11571146162221864
tp2842
a(g2820
(F-47.428443092762954
F-35.36623577863812
tp2843
F0.13855034766633229
tp2844
a(g2820
(F-47.65717723036039
F-35.01645437440351
tp2845
F0.17201773116229657
tp2846
a(g2820
(F-47.33131070446961
F-34.3301579611644
tp2847
F0.19181591874975562
tp2848
a(g2820
(F-47.16235400251244
F-34.64696877600991
tp2849
F0.20398882475108387
tp2850
a(g2820
(F-46.99473789917987
F-34.30904440337312
tp2851
F0.21769439756472778
tp2852
a(g2820
(F-47.42161741045142
F-34.13290281188211
tp2853
F0.23289637782226125
tp2854
a(g2820
(F-47.151794854192616
F-35.43873425809184
tp2855
F0.20401232618124748
tp2856
a(g2820
(F-47.74340857089359
F-35.49622965261974
tp2857
F0.16744435743235048
tp2858
a(g2820
(F-45.55390416870007
F-36.252319598666446
tp2859
F0.12637336067970797
tp2860
a(g2820
(F-42.84734468800649
F-36.489987770771236
tp2861
F0.16749602094515836
tp2862
a(g2820
(F-42.25218919274224
F-37.108963857284785
tp2863
F0.18425120087604718
tp2864
a(g2820
(F-41.894703947544016
F-36.09636948699048
tp2865
F0.2116863027110623
tp2866
a(g2820
(F-42.14826541743291
F-36.35521472528081
tp2867
F0.2345100900842841
tp2868
a(g2820
(F-42.16355223285506
F-35.77438528787871
tp2869
F0.23604443316362017
tp2870
a(g2820
(F-43.30311843850251
F-36.239599162130496
tp2871
F0.23298089437538372
tp2872
a(g2820
(F-43.25436791479254
F-35.556926502846835
tp2873
F0.22386267981580582
tp2874
a(g2820
(F-43.77967219019152
F-35.604901737396666
tp2875
F0.19644095772188302
tp2876
a(g2820
(F-41.27948471030592
F-33.939199811057115
tp2877
F0.08529296455896065
tp2878
a(g2820
(F-42.31013853909968
F-36.26800251250227
tp2879
F0.12640671279679316
tp2880
a(g2820
(F-42.52435536866636
F-35.58404439239641
tp2881
F0.1401128443661104
tp2882
a(g2820
(F-42.84734468800649
F-36.489987770771236
tp2883
F0.16749602094515836
tp2884
a(g2820
(F-43.18259267395438
F-35.970337353567125
tp2885
F0.21011966707645865
tp2886
a(g2820
(F-43.91546555738138
F-36.869323166961145
tp2887
F0.24207621401842522
tp2888
a(g2820
(F-42.733751233689574
F-36.35355424415039
tp2889
F0.23448669772863104
tp2890
a(g2820
(F-44.48332654473752
F-35.40822728855042
tp2891
F0.24969270784525327
tp2892
a(g2820
(F-44.4830144862724
F-36.40560424789052
tp2893
F0.24510534449478644
tp2894
a(g2820
(F-44.483427416424774
F-35.51465464672136
tp2895
F0.251212502548395
tp2896
a(g2820
(F-44.482692577316456
F-36.091107748296416
tp2897
F0.24054651404463379
tp2898
a(g2820
(F-45.683246303192284
F-36.495217903848044
tp2899
F0.22683203257039938
tp2900
a(g2820
(F-45.54126639390999
F-35.182060320755504
tp2901
F0.12790714500337055
tp2902
a(g2820
(F-48.36270960183125
F-36.70847083218709
tp2903
F0.07003479012338658
tp2904
a(g2820
(F-44.50000000000001
F-29.276145098126943
tp2905
F0.02741226313863465
tp2906
a((F-44.5
F-17.666666666666664
tp2907
(F-40.21311766524913
F-17.47639714757818
tp2908
F0.032036952245119495
tp2909
a(g2907
(F-44.5
F-10.366685360850967
tp2910
F0.007626952756750325
tp2911
a(g2907
(F-44.50000000000001
F-17.450502428073683
tp2912
F0.004573373729945991
tp2913
a(g2907
(F-14.924037794368203
F17.7747747101741
tp2914
F0.0045733770957471845
tp2915
a(g2907
(F-22.097459453934515
F0.04014106958876082
tp2916
F0.006130494189105723
tp2917
a(g2907
(F-51.31934208136175
F-20.12369435131413
tp2918
F0.01982782953814425
tp2919
a(g2907
(F-40.5861622876384
F-15.934470943547048
tp2920
F0.035090531271923825
tp2921
a(g2907
(F-41.68623358246911
F-16.36098861874376
tp2922
F0.04880954004681593
tp2923
a(g2907
(F-44.4683192443586
F-19.058178108396184
tp2924
F0.06710358526129769
tp2925
a(g2907
(F-41.77149886070014
F-15.857025378666496
tp2926
F0.10067333031642145
tp2927
a(g2907
(F-42.22016317887995
F-16.567632586595412
tp2928
F0.12048550752440146
tp2929
a(g2907
(F-42.62899692415891
F-17.82560684674533
tp2930
F0.14794908267499987
tp2931
a(g2907
(F-42.8794599752949
F-17.775278022657215
tp2932
F0.1708153976654576
tp2933
a(g2907
(F-43.124931543839665
F-17.457894553416025
tp2934
F0.20130866031626482
tp2935
a(g2907
(F-44.47992573631086
F-17.709625901665202
tp2936
F0.20739192520807637
tp2937
a(g2907
(F-43.83724326662102
F-16.6834398258908
tp2938
F0.21044606126118062
tp2939
a(g2907
(F-45.11944148868472
F-16.691348132208876
tp2940
F0.2150088653502662
tp2941
a(g2907
(F-45.14217785724526
F-16.142567359719713
tp2942
F0.20739645587330913
tp2943
a(g2907
(F-45.14691845533136
F-15.87048343053747
tp2944
F0.20587666117016745
tp2945
a(g2907
(F-45.12832413348518
F-16.170690630869213
tp2946
F0.21196927594398268
tp2947
a(g2907
(F-45.07083753733573
F-16.056386102268768
tp2948
F0.23331579113489778
tp2949
a(g2907
(F-45.102332701098355
F-16.223631684733196
tp2950
F0.22111602340387476
tp2951
a(g2907
(F-45.059861979769416
F-16.08302545951779
tp2952
F0.23788972362051725
tp2953
a(g2907
(F-45.24009898878927
F-15.943129648758134
tp2954
F0.1799562134936328
tp2955
a(g2907
(F-43.07052834784949
F-15.772108512908831
tp2956
F0.09607650801066656
tp2957
a(g2907
(F-48.9340232248927
F-20.960380674942872
tp2958
F0.03049437170117815
tp2959
a(g2907
(F-44.5
F-17.450502428073072
tp2960
F0.009146747459892062
tp2961
a(g2907
(F-44.5
F-22.515680747660554
tp2962
F0.010666542163033801
tp2963
a(g2907
(F-35.62449181395864
F-10.42483938300446
tp2964
F0.015239919258781064
tp2965
a((F-26.7
F-17.666666666666664
tp2966
(F0.06802405867275041
F-0.0809590883549652
tp2967
F0.006116507934386058
tp2968
a(g2966
(F0.06802405867275041
F-0.0809590883549652
tp2969
F0.006116507934386058
tp2970
a(g2966
(F4.927573010771252e-05
F5.868794821535297e-05
tp2971
F0.0030395927720846686
tp2972
a(g2966
(F-44.49999999999997
F11568.554570822494
tp2973
F-1.3989620520856762e-05
tp2974
a(g2966
(F-44.49999999999997
F11568.554570822494
tp2975
F-1.3989620520856762e-05
tp2976
a(g2966
(F-22.130537928091602
F-17.59502219530948
tp2977
F0.01832629337637058
tp2978
a(g2966
(F-24.595997017994733
F-17.576995440182444
tp2979
F0.027496376971759783
tp2980
a(g2966
(F-24.280259551575504
F-18.720767873934395
tp2981
F0.04734196761215546
tp2982
a(g2966
(F-29.271774793607847
F-14.537593229139018
tp2983
F0.07174206519567604
tp2984
a(g2966
(F-27.125924668156664
F-18.09040399532049
tp2985
F0.10228693686973489
tp2986
a(g2966
(F-25.547387331180147
F-16.740314291482296
tp2987
F0.1297832133092703
tp2988
a(g2966
(F-26.005145747294367
F-16.984837492650186
tp2989
F0.18475129382172334
tp2990
a(g2966
(F-24.757228730293694
F-17.838291433744768
tp2991
F0.20764654606892013
tp2992
a(g2966
(F-25.49525594764004
F-16.60388023006914
tp2993
F0.22293733102307717
tp2994
a(g2966
(F-26.260793576121777
F-15.765595753625243
tp2995
F0.2397104809462483
tp2996
a(g2966
(F-26.719299624934877
F-15.524329386925306
tp2997
F0.23816723766729767
tp2998
a(g2966
(F-26.717778877885426
F-16.39374611163942
tp2999
F0.23054028154474604
tp3000
a(g2966
(F-27.482446250314823
F-15.172775808507541
tp3001
F0.2488477694508523
tp3002
a(g2966
(F-26.93117561041731
F-15.827524498646481
tp3003
F0.24885722840614044
tp3004
a(g2966
(F-26.260793576121777
F-15.765595753625243
tp3005
F0.2397104809462483
tp3006
a(g2966
(F-27.082127556573266
F-15.900833746929488
tp3007
F0.2274772435626537
tp3008
a(g2966
(F-28.47858006315896
F-15.588141679412757
tp3009
F0.2473045228061005
tp3010
a(g2966
(F-27.62802501125155
F-15.335698959837927
tp3011
F0.2671496193719546
tp3012
a(g2966
(F-28.288360800018392
F-14.468201574016469
tp3013
F0.2274583256520776
tp3014
a(g2966
(F-28.703847223626898
F-15.470996629600736
tp3015
F0.1557170918506523
tp3016
a(g2966
(F-24.994247317992553
F-14.361056466697477
tp3017
F0.0839606502249666
tp3018
a(g2966
(F-26.616842786219514
F-16.556946314807387
tp3019
F0.05341118829971796
tp3020
a(g2966
(F-22.30104802549871
F0.12171465035659168
tp3021
F0.006093171798888922
tp3022
a(g2966
(F44.5
F53.0
tp3023
F0.0015197980689429307
tp3024
asS'gridcalibration1466177090'
p3025
(lp3026
(lp3027
(F-44.5
F-53.0
tp3028
a(lp3029
F-0.7023021551012095
aF36.47777320006644
aF0.05881985231761608
aaa(lp3030
(F-44.5
F-35.33333333333333
tp3031
a(lp3032
F0.45338120759396344
aF34.190102685774754
aF0.060363151816722596
aaa(lp3033
(F-44.5
F-17.666666666666664
tp3034
a(lp3035
F0.45338120759396344
aF34.190102685774754
aF0.060363151816722596
aaa(lp3036
(F-44.5
F0.0
tp3037
a(lp3038
F1.5913634949068172
aF33.71393538990634
aF0.05887280324889605
aaa(lp3039
(F-44.5
F17.66666666666667
tp3040
a(lp3041
F1.5913634949068172
aF33.71393538990634
aF0.05887280324889605
aaa(lp3042
(F-44.5
F35.33333333333334
tp3043
a(lp3044
F0.45338120759396344
aF34.190102685774754
aF0.060363151816722596
aaa(lp3045
(F-44.5
F53.0
tp3046
a(lp3047
F1.5913634949068172
aF33.71393538990634
aF0.05887280324889605
aaa(lp3048
(F-26.7
F-53.0
tp3049
a(lp3050
F0.4527087650892085
aF29.988680157429982
aF0.0634191240944305
aaa(lp3051
(F-26.7
F-35.33333333333333
tp3052
a(lp3053
F-1.8005685953748831
aF34.234038020102
aF0.06033274997684098
aaa(lp3054
(F-26.7
F-17.666666666666664
tp3055
a(lp3056
F-0.7636630819879513
aF35.58663204769819
aF0.05580970568084661
aaa(lp3057
(F-26.7
F0.0
tp3058
a(lp3059
F1.5512872406760498
aF32.01680216037181
aF0.0619062264352056
aaa(lp3060
(F-26.7
F17.66666666666667
tp3061
a(lp3062
F-1.6924144958174636
aF30.028187770873284
aF0.0633889471351724
aaa(lp3063
(F-26.7
F35.33333333333334
tp3064
a(lp3065
F-0.6842488206178453
aF33.70428323813232
aF0.05884335374777967
aaa(lp3066
(F-26.7
F53.0
tp3067
a(lp3068
F0.45338120759396344
aF34.190102685774754
aF0.060363151816722596
aaa(lp3069
(F-8.899999999999999
F-53.0
tp3070
a(lp3071
F1.5737166292914677
aF30.9984024609215
aF0.05889535234029433
aaa(lp3072
(F-8.899999999999999
F-35.33333333333333
tp3073
a(lp3074
F0.4365948179972341
aF31.541412625399925
aF0.060385700908120954
aaa(lp3075
(F-8.899999999999999
F-17.666666666666664
tp3076
a(lp3077
F-0.6617251874180481
aF29.47508950615554
aF0.06189859856734585
aaa(lp3078
(F-8.899999999999999
F0.0
tp3079
a(lp3080
F1.5913634949068172
aF33.71393538990634
aF0.05887280324889605
aaa(lp3081
(F-8.899999999999999
F17.66666666666667
tp3082
a(lp3083
F-0.7010328217182934
aF30.987395476571706
aF0.05886590283917802
aaa(lp3084
(F-8.899999999999999
F35.33333333333334
tp3085
a(lp3086
F0.45338120759396344
aF34.190102685774754
aF0.060363151816722596
aaa(lp3087
(F-8.899999999999999
F53.0
tp3088
a(lp3089
F1.5913634949068172
aF33.71393538990634
aF0.05887280324889605
aaa(lp3090
(F8.900000000000006
F-53.0
tp3091
a(lp3092
F1.5737166292914677
aF30.9984024609215
aF0.05889535234029433
aaa(lp3093
(F8.900000000000006
F-35.33333333333333
tp3094
a(lp3095
F0.43632142725651246
aF35.10886520051784
aF0.05431935711301998
aaa(lp3096
(F8.900000000000006
F-17.666666666666664
tp3097
a(lp3098
F0.45432694910069205
aF33.20287369993976
aF0.05735300517995313
aaa(lp3099
(F8.900000000000006
F0.0
tp3100
a(lp3101
F0.45432694910069205
aF33.20287369993976
aF0.05735300517995313
aaa(lp3102
(F8.900000000000006
F17.66666666666667
tp3103
a(lp3104
F0.43665950797534486
aF30.41561095889244
aF0.057375554271351395
aaa(lp3105
(F8.900000000000006
F35.33333333333334
tp3106
a(lp3107
F0.45432694910069205
aF33.20287369993976
aF0.05735300517995313
aaa(lp3108
(F8.900000000000006
F53.0
tp3109
a(lp3110
F0.45338120759396344
aF34.190102685774754
aF0.060363151816722596
aaa(lp3111
(F26.700000000000003
F-53.0
tp3112
a(lp3113
F-0.7010328217182934
aF30.987395476571706
aF0.05886590283917802
aaa(lp3114
(F26.700000000000003
F-35.33333333333333
tp3115
a(lp3116
F-1.7825401467218878
aF31.530942381173144
aF0.06035625140700457
aaa(lp3117
(F26.700000000000003
F-17.666666666666664
tp3118
a(lp3119
F0.45432694910069205
aF33.20287369993976
aF0.05735300517995313
aaa(lp3120
(F26.700000000000003
F0.0
tp3121
a(lp3122
F0.45357315593288394
aF28.842038549727114
aF0.06040897745766102
aaa(lp3123
(F26.700000000000003
F17.66666666666667
tp3124
a(lp3125
F0.4365948179972341
aF31.541412625399925
aF0.060385700908120954
aaa(lp3126
(F26.700000000000003
F35.33333333333334
tp3127
a(lp3128
F0.4365948179972341
aF31.541412625399925
aF0.060385700908120954
aaa(lp3129
(F26.700000000000003
F53.0
tp3130
a(lp3131
F-0.7010328217182934
aF30.987395476571706
aF0.05886590283917802
aaa(lp3132
(F44.5
F-53.0
tp3133
a(lp3134
F-0.7010328217182934
aF30.987395476571706
aF0.05886590283917802
aaa(lp3135
(F44.5
F-35.33333333333333
tp3136
a(lp3137
F-2.028278337657555
aF29.15222251293476
aF0.05433595813346562
aaa(lp3138
(F44.5
F-17.666666666666664
tp3139
a(lp3140
F-2.0484114921926477
aF32.15391494085633
aF0.05431245670330195
aaa(lp3141
(F44.5
F0.0
tp3142
a(lp3143
F-1.9179826329298515
aF33.24859259285209
aF0.057322603340071505
aaa(lp3144
(F44.5
F17.66666666666667
tp3145
a(lp3146
F0.43632142725651246
aF35.10886520051784
aF0.05431935711301998
aaa(lp3147
(F44.5
F35.33333333333334
tp3148
a(lp3149
F-2.0484114921926477
aF32.15391494085633
aF0.05431245670330195
aaa(lp3150
(F44.5
F53.0
tp3151
a(lp3152
F3.0453019620828354
aF34.070114787594854
aF0.05133865997736674
aaasS'gridcalibration1466434867'
p3153
(lp3154
(lp3155
(F-44.5
F-53.0
tp3156
a(lp3157
F-44.75679533915567
aF-52.66455662395599
aaF0.5023539659559716
aa(lp3158
(F-44.5
F-35.33333333333333
tp3159
a(lp3160
F-44.74012496802138
aF-35.43692196859116
aaF0.5372292524464882
aa(lp3161
(F-44.5
F-17.666666666666664
tp3162
a(lp3163
F-43.987003335297
aF-16.838518425597968
aaF0.5395433272536873
aa(lp3164
(F-44.5
F0.0
tp3165
a(lp3166
F-44.227169500320535
aF0.6065182970027249
aaF0.5034395186089939
aa(lp3167
(F-44.5
F17.66666666666667
tp3168
a(lp3169
F-44.979130497092605
aF18.15597588272049
aaF0.568938255517087
aa(lp3170
(F-44.5
F35.33333333333334
tp3171
a(lp3172
F-45.715230919598746
aF36.76205999009218
aaF0.5650927984867355
aa(lp3173
(F-44.5
F53.0
tp3174
a(lp3175
F-45.26443979047901
aF53.599469974269354
aaF0.5444433820367134
aa(lp3176
(F-26.7
F-53.0
tp3177
a(lp3178
F-27.740036070620345
aF-52.49773680369473
aaF0.6473941929418954
aa(lp3179
(F-26.7
F-35.33333333333333
tp3180
a(lp3181
F-26.474458165493026
aF-35.46910338897845
aaF0.7220002935652284
aa(lp3182
(F-26.7
F-17.666666666666664
tp3183
a(lp3184
F-26.610162228543203
aF-17.69035327313964
aaF0.5653199734729415
aa(lp3185
(F-26.7
F0.0
tp3186
a(lp3187
F-26.537718123910693
aF-0.06752207976411846
aaF0.46294120601197924
aa(lp3188
(F-26.7
F17.66666666666667
tp3189
a(lp3190
F-26.43061631613114
aF17.688579153074038
aaF0.45916883882277437
aa(lp3191
(F-26.7
F35.33333333333334
tp3192
a(lp3193
F-27.822447722553488
aF34.48709201984633
aaF0.6103975384084444
aa(lp3194
(F-26.7
F53.0
tp3195
a(lp3196
F-27.10029798076338
aF52.5120812335001
aaF0.6691254439980319
aa(lp3197
(F-8.899999999999999
F-53.0
tp3198
a(lp3199
F-10.382472417848776
aF-53.40794252819211
aaF0.398539321283179
aa(lp3200
(F-8.899999999999999
F-35.33333333333333
tp3201
a(lp3202
F-10.672643790007866
aF-35.05373078777662
aaF0.4332682790848892
aa(lp3203
(F-8.899999999999999
F-17.666666666666664
tp3204
a(lp3205
F-10.487653189328796
aF-16.77139906827515
aaF0.4740422076078099
aa(lp3206
(F-8.899999999999999
F0.0
tp3207
a(lp3208
F-10.22166610750643
aF1.5293480987143224
aaF0.5407829416601851
aa(lp3209
(F-8.899999999999999
F17.66666666666667
tp3210
a(lp3211
F-11.097700148025718
aF18.961803521034273
aaF0.6349575613412508
aa(lp3212
(F-8.899999999999999
F35.33333333333334
tp3213
a(lp3214
F-10.941382574035968
aF36.33011128619173
aaF0.6384327977400555
aa(lp3215
(F-8.899999999999999
F53.0
tp3216
a(lp3217
F-11.199044278083178
aF54.10503252149269
aaF0.5930044677261451
aa(lp3218
(F8.900000000000006
F-53.0
tp3219
a(lp3220
F7.6478881602289315
aF-52.750820847461426
aaF0.6346177346554108
aa(lp3221
(F8.900000000000006
F-35.33333333333333
tp3222
a(lp3223
F7.629675260250314
aF-35.7596779619778
aaF0.5440190564279804
aa(lp3224
(F8.900000000000006
F-17.666666666666664
tp3225
a(lp3226
F7.046591844027261
aF-17.73165523684415
aaF0.5091087818656902
aa(lp3227
(F8.900000000000006
F0.0
tp3228
a(lp3229
F6.905403997731698
aF0.4444106776834282
aaF0.535685265194164
aa(lp3230
(F8.900000000000006
F17.66666666666667
tp3231
a(lp3232
F7.597793063417859
aF17.384584941445574
aaF0.652584248314188
aa(lp3233
(F8.900000000000006
F35.33333333333334
tp3234
a(lp3235
F6.905766796146659
aF35.98918672252829
aaF0.654278358788752
aa(lp3236
(F8.900000000000006
F53.0
tp3237
a(lp3238
F6.939983540956657
aF52.72077177950067
aaF0.5813474054380736
aa(lp3239
(F26.700000000000003
F-53.0
tp3240
a(lp3241
F26.31793723869254
aF-53.266771663604054
aaF0.6205540051454131
aa(lp3242
(F26.700000000000003
F-35.33333333333333
tp3243
a(lp3244
F26.266197112731955
aF-35.99985229874833
aaF0.6931345315554495
aa(lp3245
(F26.700000000000003
F-17.666666666666664
tp3246
a(lp3247
F25.646653716555093
aF-18.061649509470076
aaF0.683887270429586
aa(lp3248
(F26.700000000000003
F0.0
tp3249
a(lp3250
F25.879949532261563
aF0.09196565539059634
aaF0.5443058628738785
aa(lp3251
(F26.700000000000003
F17.66666666666667
tp3252
a(lp3253
F25.611765140692395
aF16.850246310837345
aaF0.5431477775681299
aa(lp3254
(F26.700000000000003
F35.33333333333334
tp3255
a(lp3256
F24.943049326727543
aF35.364585202770186
aaF0.59377207878098
aa(lp3257
(F26.700000000000003
F53.0
tp3258
a(lp3259
F26.183278372744343
aF51.66328312445628
aaF0.610757840581579
aa(lp3260
(F44.5
F-53.0
tp3261
a(lp3262
F44.49272968029029
aF-53.56549858867916
aaF0.5802443528346165
aa(lp3263
(F44.5
F-35.33333333333333
tp3264
a(lp3265
F43.979476776448415
aF-36.47591318537341
aaF0.5265245385799694
aa(lp3266
(F44.5
F-17.666666666666664
tp3267
a(lp3268
F43.80370558343314
aF-18.663441880663193
aaF0.5866279611190358
aa(lp3269
(F44.5
F0.0
tp3270
a(lp3271
F44.267124177645954
aF-0.8265018159441535
aaF0.5682786429801215
aa(lp3272
(F44.5
F17.66666666666667
tp3273
a(lp3274
F43.849855455614
aF16.96411750316485
aaF0.6218575990901783
aa(lp3275
(F44.5
F35.33333333333334
tp3276
a(lp3277
F43.767277883973364
aF34.669012567584495
aaF0.5532137723920417
aa(lp3278
(F44.5
F53.0
tp3279
a(lp3280
F43.67142989111955
aF53.00245025703602
aaF0.48794582510312384
aas.