(dp0
S'M5238'
p1
(lp2
(lp3
F0.3374
aF-0.0003
aF-0.0017
aF-0.0726
aF-0.0125
aF0.225
aa(lp4
F0.0021
aF0.3382
aF0.0004
aF0.0098
aF-0.0433
aF-0.0117
aa(lp5
F-0.0005
aF-0.0008
aF0.0847
aF-0.0082
aF-0.0051
aF0.0035
aa(lp6
F0.003
aF0.0026
aF-0.0012
aF19.7556
aF0.0741
aF0.0014
aa(lp7
F0.0026
aF0.0055
aF0.0088
aF-0.0181
aF19.8361
aF0.1955
aa(lp8
F-0.0019
aF0.0002
aF-0.0006
aF0.0638
aF-0.047
aF13.1748
aasS'M5239'
p9
(lp10
(lp11
F0.3482
aF-0.0008
aF-0.0006
aF-0.0782
aF-0.023
aF-0.0396
aa(lp12
F0.0036
aF0.3468
aF0.0009
aF0.0216
aF-0.0857
aF-0.0781
aa(lp13
F-0.0016
aF-0.001
aF0.0871
aF-0.003
aF0.0184
aF0.0192
aa(lp14
F0.0005
aF-0.003
aF-0.0056
aF20.4536
aF-0.428
aF-0.0628
aa(lp15
F-0.003
aF0.0067
aF0.0013
aF0.0971
aF20.4307
aF0.2442
aa(lp16
F0.0051
aF0.002
aF0.0002
aF0.0854
aF0.0779
aF13.5338
aasS'M5170_inv'
p17
(lp18
(lp19
F2.8297
aF0.003
aF0.0308
aF0.0121
aF0.008
aF0.0013
aa(lp20
F-0.024
aF2.8383
aF-0.0143
aF-0.0078
aF0.004
aF0.0101
aa(lp21
F0.033
aF0.024
aF11.3551
aF0.0072
aF0.0053
aF0.0377
aa(lp22
F-0.0001
aF0.0002
aF0.0039
aF0.0487
aF0.0002
aF-0.0004
aa(lp23
F0.0002
aF-0.0001
aF-0.0014
aF-0.0005
aF0.0489
aF-0.0003
aa(lp24
F-0.0004
aF-0.0009
aF-0.0003
aF0.0
aF0.0
aF0.0727
aasS'M5239_inv'
p25
(lp26
(lp27
F2.8717
aF0.0065
aF0.0194
aF0.0109
aF0.0032
aF0.0084
aa(lp28
F-0.0297
aF2.8833
aF-0.0299
aF-0.0033
aF0.012
aF0.0164
aa(lp29
F0.0547
aF0.0326
aF11.4879
aF0.002
aF-0.0101
aF-0.0158
aa(lp30
F-0.0001
aF0.0004
aF0.0032
aF0.0489
aF0.0001
aF0.0002
aa(lp31
F0.0004
aF-0.0009
aF-0.0007
aF-0.0002
aF0.0489
aF-0.0009
aa(lp32
F-0.0011
aF-0.0005
aF-0.0002
aF-0.0003
aF-0.0003
aF0.0739
aasS'M5240_inv'
p33
(lp34
(lp35
F2.9151
aF0.012
aF0.017
aF0.0034
aF-0.0001
aF-0.0014
aa(lp36
F-0.0422
aF2.9202
aF-0.0318
aF-0.0017
aF0.0099
aF0.0395
aa(lp37
F0.0049
aF0.0324
aF11.6915
aF-0.0182
aF-0.0279
aF-0.0266
aa(lp38
F-0.0004
aF-0.0006
aF0.0038
aF0.0495
aF0.0002
aF0.0009
aa(lp39
F-0.0006
aF-0.0009
aF-0.0035
aF-0.0003
aF0.0497
aF0.0001
aa(lp40
F0.0002
aF0.0004
aF-0.0007
aF0.0002
aF-0.0001
aF0.0731
aasS'M5240'
p41
(lp42
(lp43
F0.343
aF-0.0014
aF-0.0005
aF-0.0006
aF0.0005
aF0.0072
aa(lp44
F0.0049
aF0.3424
aF0.0009
aF0.0003
aF-0.0017
aF-0.0047
aa(lp45
F-0.0001
aF-0.0009
aF0.0855
aF0.0007
aF0.0008
aF0.0012
aa(lp46
F0.0026
aF0.0043
aF-0.0065
aF20.1865
aF-0.0904
aF-0.2634
aa(lp47
F0.0043
aF0.0064
aF0.006
aF0.1375
aF21.1264
aF-0.0404
aa(lp48
F-0.0008
aF-0.002
aF0.0008
aF-0.0601
aF0.0344
aF13.6804
aasS'gridcalibration1466177615'
p49
(lp50
(lp51
(F-44.5
F-53.0
tp52
a(lp53
F4.773907183109497
aF39.08661644158232
aaF0.046792515443285845
aa(lp54
(F-44.5
F-35.33333333333333
tp55
a(lp56
F4.489498158937566
aF36.71488353333186
aaF0.04982521117145368
aa(lp57
(F-44.5
F-17.666666666666664
tp58
a(lp59
F7.631773919591276
aF39.0953675097001
aaF0.04682196494440223
aa(lp60
(F-44.5
F0.0
tp61
a(lp62
F5.691561186349813
aF34.01951757835311
aaF0.0513685106705602
aa(lp63
(F-44.5
F17.66666666666667
tp64
a(lp65
F3.2306768482401202
aF36.202516761806066
aaF0.04830541310251075
aa(lp66
(F-44.5
F35.33333333333334
tp67
a(lp68
F6.023601821195406
aF39.524300583104406
aaF0.04831231351222878
aa(lp69
(F-44.5
F53.0
tp70
a(lp71
F4.773907183109497
aF39.08661644158232
aaF0.046792515443285845
aa(lp72
(F-26.7
F-53.0
tp73
a(lp74
F3.0667049790391556
aF37.187849240542306
aaF0.0513155597392803
aa(lp75
(F-26.7
F-35.33333333333333
tp76
a(lp77
F3.0667049790391556
aF37.187849240542306
aaF0.0513155597392803
aa(lp78
(F-26.7
F-17.666666666666664
tp79
a(lp80
F4.773907183109497
aF39.08661644158232
aaF0.046792515443285845
aa(lp81
(F-26.7
F0.0
tp82
a(lp83
F4.5116790750855
aF39.92756194479927
aaF0.049802662080055404
aa(lp84
(F-26.7
F17.66666666666667
tp85
a(lp86
F5.713603311296066
aF37.13444919762654
aaF0.05134596157916192
aa(lp87
(F-26.7
F35.33333333333334
tp88
a(lp89
F4.530540305117457
aF36.65051803027472
aaF0.049826163510218985
aa(lp90
(F-26.7
F53.0
tp91
a(lp92
F5.417331883141312
aF32.07123988710615
aaF0.05440193385686981
aa(lp93
(F-8.899999999999999
F-53.0
tp94
a(lp95
F4.276416735469652
aF34.5546697780286
aaF0.05285885923838682
aa(lp96
(F-8.899999999999999
F-35.33333333333333
tp97
a(lp98
F4.693475318066423
aF37.623671419539825
aaF0.06340909721763825
aa(lp99
(F-8.899999999999999
F-17.666666666666664
tp100
a(lp101
F4.517137052819782
aF40.7308356261018
aaF0.06639669476300944
aa(lp102
(F-8.899999999999999
F0.0
tp103
a(lp104
F5.197746172176982
aF36.957651441178804
aaF0.07097246510966028
aa(lp105
(F-8.899999999999999
F17.66666666666667
tp106
a(lp107
F5.003682424341475
aF37.61025479927189
aaF0.07398205808593111
aa(lp108
(F-8.899999999999999
F35.33333333333334
tp109
a(lp110
F5.825783104157068
aF37.877547720736935
aaF0.07550280849363927
aa(lp111
(F-8.899999999999999
F53.0
tp112
a(lp113
F5.018775318747036
aF39.77387282867957
aaF0.07395950899453275
aa(lp114
(F8.900000000000006
F-53.0
tp115
a(lp116
F6.280211937692894
aF38.91701751975169
aaF0.06945956745043538
aa(lp117
(F8.900000000000006
F-35.33333333333333
tp118
a(lp119
F5.414522639261882
aF37.03221162890908
aaF0.040772222169746825
aa(lp120
(F8.900000000000006
F-17.666666666666664
tp121
a(lp122
F3.086035392266019
aF34.01016012617805
aaF0.025669747087512733
aa(lp123
(F8.900000000000006
F0.0
tp124
a(lp125
F3.4381561754478036
aF31.48751182294634
aaF0.022659600450743257
aa(lp126
(F8.900000000000006
F17.66666666666667
tp127
a(lp128
F4.524601825170737
aF23.704045450810717
aaF0.01663930717720423
aa(lp129
(F8.900000000000006
F35.33333333333334
tp130
a(lp131
F0.4386436540874278
aF26.201818925505624
aaF0.012085917261484037
aa(lp132
(F8.900000000000006
F53.0
tp133
a(lp134
F7.870280597764482
aF26.155924799940237
aaF0.01815910524614716
aa(lp135
(F26.700000000000003
F-53.0
tp136
a(lp137
F4.279343149530555
aF40.67264550316915
aaF0.05281280871682487
aa(lp138
(F26.700000000000003
F-35.33333333333333
tp139
a(lp140
F5.237249427838728
aF37.60005530516227
aaF0.08455580822376184
aa(lp141
(F26.700000000000003
F-17.666666666666664
tp142
a(lp143
F4.522550887912244
aF41.53436240193639
aaF0.09958343865571245
aa(lp144
(F26.700000000000003
F0.0
tp145
a(lp146
F4.815438785451068
aF39.835472805515074
aaF0.12376565918423758
aa(lp147
(F26.700000000000003
F17.66666666666667
tp148
a(lp149
F4.2286629901445405
aF39.99210987708174
aaF0.1252560077520642
aa(lp150
(F26.700000000000003
F35.33333333333334
tp151
a(lp152
F4.516950390340187
aF40.73038496795196
aaF0.13279278785996962
aa(lp153
(F26.700000000000003
F53.0
tp154
a(lp155
F4.976239889926074
aF39.65369416952115
aaF0.1343359186986085
aa(lp156
(F44.5
F-53.0
tp157
a(lp158
F4.524807709977535
aF39.50125543599648
aaF0.1328188889321591
aa(lp159
(F44.5
F-35.33333333333333
tp160
a(lp161
F4.138976690641046
aF40.29705075916079
aaF0.1282628431542572
aa(lp162
(F44.5
F-17.666666666666664
tp163
a(lp164
F4.138976690641046
aF40.29705075916079
aaF0.1282628431542572
aa(lp165
(F44.5
F0.0
tp166
a(lp167
F4.710570012130538
aF40.14776881609145
aaF0.1267730375185136
aa(lp168
(F44.5
F17.66666666666667
tp169
a(lp170
F4.710570012130538
aF40.14776881609145
aaF0.1267730375185136
aa(lp171
(F44.5
F35.33333333333334
tp172
a(lp173
F4.514526608131518
aF40.38620259268191
aaF0.11619979554944135
aa(lp174
(F44.5
F53.0
tp175
a(lp176
F4.181265286115039
aF39.510908615757494
aaF0.10865970420695938
aasS'ForcePlates_plates_1'
p177
(F-7.41133
F0.005622015588162621
tp178
sS'M5237'
p179
(lp180
(lp181
F0.6789
aF0.0034
aF-0.0013
aF-0.2676
aF0.2778
aF0.0501
aa(lp182
F0.0098
aF0.6808
aF0.0023
aF-0.4103
aF-0.1925
aF0.0485
aa(lp183
F-0.004
aF-0.0045
aF0.1643
aF-0.0228
aF-0.0171
aF0.0114
aa(lp184
F-0.0059
aF-0.0037
aF-0.0029
aF38.7248
aF0.0656
aF-0.0667
aa(lp185
F-0.0037
aF0.0103
aF0.0064
aF0.1106
aF38.6657
aF0.0941
aa(lp186
F0.0024
aF-0.0004
aF0.0008
aF-0.0325
aF-0.0992
aF27.5819
aasS'M5238_inv'
p187
(lp188
(lp189
F2.964
aF0.0025
aF0.061
aF0.0109
aF0.0018
aF-0.0051
aa(lp190
F-0.0188
aF2.9567
aF-0.0161
aF-0.0015
aF0.0064
aF0.0026
aa(lp191
F0.0172
aF0.0281
aF11.8009
aF0.005
aF0.0031
aF-0.0032
aa(lp192
F-0.0004
aF-0.0004
aF0.0008
aF0.0506
aF-0.0002
aF0.0
aa(lp193
F-0.0004
aF-0.0008
aF-0.0052
aF0.0
aF0.0504
aF-0.0007
aa(lp194
F0.0004
aF0.0
aF0.0005
aF-0.0002
aF0.0002
aF0.076
aasS'M5170'
p195
(lp196
(lp197
F0.3534
aF-0.0004
aF-0.0009
aF-0.0883
aF-0.0571
aF-0.0063
aa(lp198
F0.003
aF0.3523
aF0.0004
aF0.0555
aF-0.0295
aF-0.0488
aa(lp199
F-0.001
aF-0.0008
aF0.0881
aF-0.013
aF-0.0092
aF-0.0456
aa(lp200
F0.0007
aF-0.0013
aF-0.007
aF20.5413
aF-0.978
aF0.1023
aa(lp201
F-0.0012
aF0.001
aF0.0024
aF0.1935
aF20.4513
aF0.0734
aa(lp202
F0.0021
aF0.0045
aF0.0003
aF0.0003
aF-0.0132
aF13.7464
aasS'ForcePlates_plates_3'
p203
(F-86.1909
F0.005429320829969416
tp204
sS'ForcePlates_plates_2'
p205
(F-90.3083
F0.005536604987041576
tp206
sS'M5237_inv'
p207
(lp208
(lp209
F1.4732
aF-0.007
aF0.126
aF0.0101
aF-0.0106
aF-0.0026
aa(lp210
F-0.0211
aF1.4689
aF-0.0209
aF0.0154
aF0.0074
aF-0.0025
aa(lp211
F0.0352
aF0.0399
aF6.0877
aF0.0042
aF0.0026
aF-0.0026
aa(lp212
F0.0002
aF0.0001
aF0.0005
aF0.0256
aF0.0
aF0.0001
aa(lp213
F0.0001
aF-0.0004
aF-0.001
aF-0.0001
aF0.0259
aF-0.0001
aa(lp214
F-0.0001
aF0.0
aF-0.0002
aF0.0
aF0.0001
aF0.0363
aasS'ForcePlates_plates_0'
p215
(F-18.3911
F0.005511466882422223
tp216
sS'gridcalibration1466177036.0'
p217
(lp218
(lp219
(F-44.5
F-53.0
tp220
a(lp221
F-3.4361412664247593
aF27.359522292152704
aF0.06942507361645052
aaa(lp222
(F-44.5
F-35.33333333333333
tp223
a(lp224
F-3.4361412664247593
aF27.359522292152704
aF0.06942507361645052
aaa(lp225
(F-44.5
F-17.666666666666664
tp226
a(lp227
F-3.4361412664247593
aF27.359522292152704
aF0.06942507361645052
aaa(lp228
(F-44.5
F0.0
tp229
a(lp230
F-3.4361412664247593
aF27.359522292152704
aF0.06942507361645052
aaa(lp231
(F-44.5
F17.66666666666667
tp232
a(lp233
F-3.821828821005219
aF27.495520003145327
aF0.06338204672545436
aaa(lp234
(F-44.5
F35.33333333333334
tp235
a(lp236
F-2.4092417429136397
aF27.908798759660694
aF0.07094487168539346
aaa(lp237
(F-44.5
F53.0
tp238
a(lp239
F-3.275255555916389
aF28.425048116021653
aF0.07243522025322008
aaa(lp240
(F-26.7
F-53.0
tp241
a(lp242
F-4.118668764153057
aF26.759180637922217
aF0.07394811791244499
aaa(lp243
(F-26.7
F-35.33333333333333
tp244
a(lp245
F-3.2597600185137154
aF26.175323078059822
aF0.07245872168338366
aaa(lp246
(F-26.7
F-17.666666666666664
tp247
a(lp248
F-3.611944987728547
aF26.19762918498971
aF0.06641546991176399
aaa(lp249
(F-26.7
F0.0
tp250
a(lp251
F0.43673136156459946
aF29.165140748634293
aF0.05436540763458185
aaa(lp252
(F-26.7
F17.66666666666667
tp253
a(lp254
F-1.0160878365851997
aF28.808585723693746
aF0.04680181486193638
aaa(lp255
(F-26.7
F35.33333333333334
tp256
a(lp257
F-1.1158574128701315
aF27.145719080931936
aF0.04379166822516683
aaa(lp258
(F-26.7
F53.0
tp259
a(lp260
F-0.9069533162334461
aF26.998599331506668
aF0.04983546292886944
aaa(lp261
(F-8.899999999999999
F-53.0
tp262
a(lp263
F-3.178800893119096
aF26.92678918263887
aF0.05584885579269051
aaa(lp264
(F-8.899999999999999
F-35.33333333333333
tp265
a(lp266
F-2.0458965318004627
aF26.21193930202034
aF0.05435850722486389
aaa(lp267
(F-8.899999999999999
F-17.666666666666664
tp268
a(lp269
F-2.0458965318004627
aF26.21193930202034
aF0.05435850722486389
aaa(lp270
(F-8.899999999999999
F0.0
tp271
a(lp272
F-0.9283764505609419
aF30.27047764947973
aF0.049811961498705856
aaa(lp273
(F-8.899999999999999
F17.66666666666667
tp274
a(lp275
F-2.194146094668047
aF30.93077756655071
aF0.05130231006653248
aaa(lp276
(F-8.899999999999999
F35.33333333333334
tp277
a(lp278
F0.4368116384326979
aF27.76807996032619
aF0.051355260997812374
aaa(lp279
(F-8.899999999999999
F53.0
tp280
a(lp281
F-0.9283764505609419
aF30.27047764947973
aF0.049811961498705856
aaa(lp282
(F8.900000000000006
F-53.0
tp283
a(lp284
F-3.406002113056345
aF28.52657085441022
aF0.052815207725757374
aaa(lp285
(F8.900000000000006
F-35.33333333333333
tp286
a(lp287
F-0.9069533162334461
aF26.998599331506668
aF0.04983546292886944
aaa(lp288
(F8.900000000000006
F-17.666666666666664
tp289
a(lp290
F-0.9283764505609419
aF30.27047764947973
aF0.049811961498705856
aaa(lp291
(F8.900000000000006
F0.0
tp292
a(lp293
F-1.9157043299394274
aF27.61751508928013
aF0.05736865386163337
aaa(lp294
(F8.900000000000006
F17.66666666666667
tp295
a(lp296
F-3.178800893119096
aF26.92678918263887
aF0.05584885579269051
aaa(lp297
(F8.900000000000006
F35.33333333333334
tp298
a(lp299
F-4.533775863609243
aF29.198213731609606
aF0.054305556293583995
aaa(lp300
(F8.900000000000006
F53.0
tp301
a(lp302
F-1.9157043299394274
aF27.61751508928013
aF0.05736865386163337
aaa(lp303
(F26.700000000000003
F-53.0
tp304
a(lp305
F-3.178800893119096
aF26.92678918263887
aF0.05584885579269051
aaa(lp306
(F26.700000000000003
F-35.33333333333333
tp307
a(lp308
F-3.178800893119096
aF26.92678918263887
aF0.05584885579269051
aaa(lp309
(F26.700000000000003
F-17.666666666666664
tp310
a(lp311
F-3.178800893119096
aF26.92678918263887
aF0.05584885579269051
aaa(lp312
(F26.700000000000003
F0.0
tp313
a(lp314
F-3.406002113056345
aF28.52657085441022
aF0.052815207725757374
aaa(lp315
(F26.700000000000003
F17.66666666666667
tp316
a(lp317
F-3.178800893119096
aF26.92678918263887
aF0.05584885579269051
aaa(lp318
(F26.700000000000003
F35.33333333333334
tp319
a(lp320
F-3.178800893119096
aF26.92678918263887
aF0.05584885579269051
aaa(lp321
(F26.700000000000003
F53.0
tp322
a(lp323
F-0.8304935060911471
aF28.47966898737556
aF0.052845609565638996
aaa(lp324
(F44.5
F-53.0
tp325
a(lp326
F-2.194146094668047
aF30.93077756655071
aF0.05130231006653248
aaa(lp327
(F44.5
F-35.33333333333333
tp328
a(lp329
F-2.212732771417769
aF27.815922239385234
aF0.05132485915793075
aaa(lp330
(F44.5
F-17.666666666666664
tp331
a(lp332
F-2.19135300360426
aF24.641568020599163
aF0.05134836058809435
aaa(lp333
(F44.5
F0.0
tp334
a(lp335
F-0.8304935060911471
aF28.47966898737556
aF0.052845609565638996
aaa(lp336
(F44.5
F17.66666666666667
tp337
a(lp338
F0.4368116384326979
aF27.76807996032619
aF0.051355260997812374
aaa(lp339
(F44.5
F35.33333333333334
tp340
a(lp341
F-2.194146094668047
aF30.93077756655071
aF0.05130231006653248
aaa(lp342
(F44.5
F53.0
tp343
a(lp344
F-0.9069533162334461
aF26.998599331506668
aF0.04983546292886944
aaasS'gridcalibration1466176819.16'
p345
(lp346
(lp347
(F-44.5
F-53.0
tp348
a(lp349
F15.247341034498348
aF36.68809024119377
aF0.04994451266137246
aaa(lp350
(F-44.5
F-35.33333333333333
tp351
a(lp352
F14.405371128054913
aF37.61532197019632
aF0.05295465929814194
aaa(lp353
(F-44.5
F-17.666666666666664
tp354
a(lp355
F12.158601154226664
aF35.98046284267377
aF0.05747843105227811
aaa(lp356
(F-44.5
F0.0
tp357
a(lp358
F13.162133953657337
aF35.03279401644355
aF0.06355167525709711
aaa(lp359
(F-44.5
F17.66666666666667
tp360
a(lp361
F13.782989713961745
aF36.83529109491432
aF0.06051802719016397
aaa(lp362
(F-44.5
F35.33333333333334
tp363
a(lp364
F11.027406276424745
aF35.07492728556806
aF0.06352127341721549
aaa(lp365
(F-44.5
F53.0
tp366
a(lp367
F13.14168181692951
aF32.51664837177034
aF0.06357422434849538
aaa(lp368
(F-26.7
F-53.0
tp369
a(lp370
F12.145498828091714
aF38.82041262388323
aF0.057455154502738026
aaa(lp371
(F-26.7
F-35.33333333333333
tp372
a(lp373
F12.361501981431987
aF34.644261347360555
aF0.062030924849388866
aaa(lp374
(F-26.7
F-17.666666666666664
tp375
a(lp376
F11.541633191595585
aF36.88010928416988
aF0.06048785023090586
aaa(lp377
(F-26.7
F0.0
tp378
a(lp379
F12.969752700963697
aF33.708091634863464
aF0.05902077821261939
aaa(lp380
(F-26.7
F17.66666666666667
tp381
a(lp382
F12.99171760949735
aF36.418887183391874
aF0.05899822912122103
aaa(lp383
(F-26.7
F35.33333333333334
tp384
a(lp385
F14.481647305683047
aF35.98917846344942
aF0.057507880553394494
aaa(lp386
(F-26.7
F53.0
tp387
a(lp388
F12.99171760949735
aF36.418887183391874
aF0.05899822912122103
aaa(lp389
(F-8.899999999999999
F-53.0
tp390
a(lp391
F11.554311141893201
aF34.183238430707185
aF0.06051112678044593
aaa(lp392
(F-8.899999999999999
F-35.33333333333333
tp393
a(lp394
F12.361501981431987
aF34.644261347360555
aF0.062030924849388866
aaa(lp395
(F-8.899999999999999
F-17.666666666666664
tp396
a(lp397
F12.567254425680078
aF33.44265985316029
aF0.06658437098526493
aaa(lp398
(F-8.899999999999999
F0.0
tp399
a(lp400
F8.520624201343638
aF33.47350655456128
aF0.066524519644267
aaa(lp401
(F-8.899999999999999
F17.66666666666667
tp402
a(lp403
F13.89405572932373
aF35.45243296977245
aF0.06507147332604003
aaa(lp404
(F-8.899999999999999
F35.33333333333334
tp405
a(lp406
F11.027406276424745
aF35.07492728556806
aF0.06352127341721549
aaa(lp407
(F-8.899999999999999
F53.0
tp408
a(lp409
F11.809551806029484
aF35.49377787142985
aF0.06504107148615841
aaa(lp410
(F8.900000000000006
F-53.0
tp411
a(lp412
F12.38217943330118
aF37.223803944534055
aF0.06200837575799059
aaa(lp413
(F8.900000000000006
F-35.33333333333333
tp414
a(lp415
F12.567254425680078
aF33.44265985316029
aF0.06658437098526493
aaa(lp416
(F8.900000000000006
F-17.666666666666664
tp417
a(lp418
F12.04251803708195
aF34.28856645153474
aF0.0695945176220344
aaa(lp419
(F8.900000000000006
F0.0
tp420
a(lp421
F11.317890469993428
aF33.870825463972814
aF0.06807471955309155
aaa(lp422
(F8.900000000000006
F17.66666666666667
tp423
a(lp424
F13.89405572932373
aF35.45243296977245
aF0.06507147332604003
aaa(lp425
(F8.900000000000006
F35.33333333333334
tp426
a(lp427
F11.809551806029484
aF35.49377787142985
aF0.06504107148615841
aaa(lp428
(F8.900000000000006
F53.0
tp429
a(lp430
F11.821359649388958
aF32.985833558041854
aF0.065064572916322
aaa(lp431
(F26.700000000000003
F-53.0
tp432
a(lp433
F10.548179963658166
aF35.88592902431669
aF0.06653142005398503
aaa(lp434
(F26.700000000000003
F-35.33333333333333
tp435
a(lp436
F10.548179963658166
aF35.88592902431669
aF0.06653142005398503
aaa(lp437
(F26.700000000000003
F-17.666666666666664
tp438
a(lp439
F11.047124665613351
aF37.59407959096081
aF0.06349872432581721
aaa(lp440
(F26.700000000000003
F0.0
tp441
a(lp442
F12.38217943330118
aF37.223803944534055
aF0.06200837575799059
aaa(lp443
(F26.700000000000003
F17.66666666666667
tp444
a(lp445
F11.027406276424745
aF35.07492728556806
aF0.06352127341721549
aaa(lp446
(F26.700000000000003
F35.33333333333334
tp447
a(lp448
F14.535492767082038
aF37.23129294179349
aF0.062037825259106893
aaa(lp449
(F26.700000000000003
F53.0
tp450
a(lp451
F12.361501981431987
aF34.644261347360555
aF0.062030924849388866
aaa(lp452
(F44.5
F-53.0
tp453
a(lp454
F12.567254425680078
aF33.44265985316029
aF0.06658437098526493
aaa(lp455
(F44.5
F-35.33333333333333
tp456
a(lp457
F12.361501981431987
aF34.644261347360555
aF0.062030924849388866
aaa(lp458
(F44.5
F-17.666666666666664
tp459
a(lp460
F12.38217943330118
aF37.223803944534055
aF0.06200837575799059
aaa(lp461
(F44.5
F0.0
tp462
a(lp463
F10.560168803998108
aF33.434006039172644
aF0.06655492148414863
aaa(lp464
(F44.5
F17.66666666666667
tp465
a(lp466
F13.162133953657337
aF35.03279401644355
aF0.06355167525709711
aaa(lp467
(F44.5
F35.33333333333334
tp468
a(lp469
F13.162133953657337
aF35.03279401644355
aF0.06355167525709711
aaa(lp470
(F44.5
F53.0
tp471
a(lp472
F13.782989713961745
aF36.83529109491432
aF0.06051802719016397
aaasS'gridcalibration1466176296.83'
p473
(lp474
((F-44.5
F-53.0
tp475
(F5.814328800658145
F-4.21025200253915
F0.062285739667423935
tp476
tp477
a((F-44.5
F-35.33333333333333
tp478
(F5.814328800658145
F-4.21025200253915
F0.062285739667423935
tp479
tp480
a((F-44.5
F-17.666666666666664
tp481
(F5.800110941272826
F-1.6049258060223914
F0.062262856658975047
tp482
tp483
a((F-44.5
F0.0
tp484
(F6.091903216870982
F-1.6932756141061374
F0.05923016093080721
tp485
tp486
a((F-44.5
F17.66666666666667
tp487
(F6.735791270380583
F-2.8475484880503097
F0.06380553773636687
tp488
tp489
a((F-44.5
F35.33333333333334
tp490
(F4.707101709276147
F-2.059230980053296
F0.09413642446440396
tp491
tp492
a((F-44.5
F53.0
tp493
(F3.4603588551572044
F-2.542162972184064
F0.11081548912029612
tp494
tp495
a((F-26.7
F-53.0
tp496
(F3.9209390208097994
F-3.1470033012715324
F0.1153914281274146
tp497
tp498
a((F-26.7
F-35.33333333333333
tp499
(F4.307215115520371
F-3.1425379007141867
F0.08655088996720417
tp500
tp501
a((F-26.7
F-17.666666666666664
tp502
(F12.024878481917963
F-3.0464121270517497
F0.028899707208351888
tp503
tp504
a((F-26.7
F0.0
tp505
(F-74.8033886323634
F17.085280819272803
F-0.004463594147073597
tp506
tp507
a((F-26.7
F17.66666666666667
tp508
(F-335.69213457362645
F55.329706253022245
F-0.0014006652394917916
tp509
tp510
a((F-26.7
F35.33333333333334
tp511
(F-33.0735423935563
F12.712945750748217
F-0.012020230289845255
tp512
tp513
a((F-26.7
F53.0
tp514
(F19.480653415240248
F37.572606951229865
F0.021206152940439215
tp515
tp516
a((F-8.899999999999999
F-53.0
tp517
(F6.394298697254719
F38.62777985514548
F0.04530271802214746
tp518
tp519
a((F-8.899999999999999
F-35.33333333333333
tp520
(F6.159242714852914
F41.93873059024958
F0.058863102638168456
tp521
tp522
a((F-8.899999999999999
F-17.666666666666664
tp523
(F5.624805705798472
F37.98281459461065
F0.06492944643326934
tp524
tp525
a((F-8.899999999999999
F0.0
tp526
(F6.820608736512169
F40.15334720622159
F0.06341654877404444
tp527
tp528
a((F-8.899999999999999
F17.66666666666667
tp529
(F20.571154482908103
F53.00000000000001
F0.01662943025502308
tp530
tp531
a((F-8.899999999999999
F35.33333333333334
tp532
(F-182.66836899319495
F-56.18872115741429
F-0.002936895668412654
tp533
tp534
a((F-8.899999999999999
F53.0
tp535
(F-329.4625363164801
F-59.57651295476719
F-0.0014239980091877353
tp536
tp537
a((F8.900000000000006
F-53.0
tp538
(F-12.05431072151981
F-17.86816969671593
F0.054580627902090645
tp539
tp540
a((F8.900000000000006
F-35.33333333333333
tp541
(F-17.276418263840036
F-18.753599386051256
F0.06512654079201018
tp542
tp543
a((F8.900000000000006
F-17.666666666666664
tp544
(F-18.222637269238618
F-20.14771056369049
F0.07269893805677383
tp545
tp546
a((F8.900000000000006
F0.0
tp547
(F-16.93824807081132
F-18.649844188359253
F0.07421873612571675
tp548
tp549
a((F8.900000000000006
F17.66666666666667
tp550
(F-17.693244628920993
F-19.405181818376153
F0.0711850318386278
tp551
tp552
a((F8.900000000000006
F35.33333333333334
tp553
(F-19.05003578533653
F-20.984753859615964
F0.06966523376968488
tp554
tp555
a((F8.900000000000006
F53.0
tp556
(F-19.58308346019991
F-19.43514849720506
F0.07115558233751143
tp557
tp558
a((F26.700000000000003
F-53.0
tp559
(F-17.672669488762818
F-21.67864365000458
F0.07120858948894727
tp560
tp561
a((F26.700000000000003
F-35.33333333333333
tp562
(F-18.75833295958794
F-20.817444054431466
F0.07421183571599871
tp563
tp564
a((F26.700000000000003
F-17.666666666666664
tp565
(F-19.041795529065364
F-18.705995313272133
F0.06964268467828652
tp566
tp567
a((F26.700000000000003
F0.0
tp568
(F-19.58308346019991
F-19.43514849720506
F0.07115558233751143
tp569
tp570
a((F26.700000000000003
F17.66666666666667
tp571
(F-16.48213436835658
F-20.288674016693168
F0.06818279417049747
tp572
tp573
a((F26.700000000000003
F35.33333333333334
tp574
(F-17.89446808601093
F-19.53108641970378
F0.06663943845123507
tp575
tp576
a((F26.700000000000003
F53.0
tp577
(F-16.207945989599548
F-19.93775074033722
F0.05303192326411442
tp578
tp579
a((F44.5
F-53.0
tp580
(F-15.41688207365107
F-18.90638661041556
F0.0515175303340412
tp581
tp582
a((F44.5
F-35.33333333333333
tp583
(F-14.536967980093605
F-17.874879225348852
F0.05000463267481629
tp584
tp585
a((F44.5
F-17.666666666666664
tp586
(F-15.482069924188808
F-19.03673873404388
F0.046971936946648474
tp587
tp588
a((F44.5
F0.0
tp589
(F42.02934328933184
F-47.23148785583337
F0.05856023490375062
tp590
tp591
a((F44.5
F17.66666666666667
tp592
(F41.96247156820662
F-47.075355142718465
F0.05701699162479998
tp593
tp594
a((F44.5
F35.33333333333334
tp595
(F39.760026195571704
F-44.52615085962088
F0.0585073401926266
tp596
tp597
a((F44.5
F53.0
tp598
(F44.314043968088754
F-46.739805397633035
F0.05396085068662444
tp599
tp600
asS'gridcalibration1466177090'
p601
(lp602
(lp603
(F-44.5
F-53.0
tp604
a(lp605
F-0.7023021551012095
aF36.47777320006644
aF0.05881985231761608
aaa(lp606
(F-44.5
F-35.33333333333333
tp607
a(lp608
F0.45338120759396344
aF34.190102685774754
aF0.060363151816722596
aaa(lp609
(F-44.5
F-17.666666666666664
tp610
a(lp611
F0.45338120759396344
aF34.190102685774754
aF0.060363151816722596
aaa(lp612
(F-44.5
F0.0
tp613
a(lp614
F1.5913634949068172
aF33.71393538990634
aF0.05887280324889605
aaa(lp615
(F-44.5
F17.66666666666667
tp616
a(lp617
F1.5913634949068172
aF33.71393538990634
aF0.05887280324889605
aaa(lp618
(F-44.5
F35.33333333333334
tp619
a(lp620
F0.45338120759396344
aF34.190102685774754
aF0.060363151816722596
aaa(lp621
(F-44.5
F53.0
tp622
a(lp623
F1.5913634949068172
aF33.71393538990634
aF0.05887280324889605
aaa(lp624
(F-26.7
F-53.0
tp625
a(lp626
F0.4527087650892085
aF29.988680157429982
aF0.0634191240944305
aaa(lp627
(F-26.7
F-35.33333333333333
tp628
a(lp629
F-1.8005685953748831
aF34.234038020102
aF0.06033274997684098
aaa(lp630
(F-26.7
F-17.666666666666664
tp631
a(lp632
F-0.7636630819879513
aF35.58663204769819
aF0.05580970568084661
aaa(lp633
(F-26.7
F0.0
tp634
a(lp635
F1.5512872406760498
aF32.01680216037181
aF0.0619062264352056
aaa(lp636
(F-26.7
F17.66666666666667
tp637
a(lp638
F-1.6924144958174636
aF30.028187770873284
aF0.0633889471351724
aaa(lp639
(F-26.7
F35.33333333333334
tp640
a(lp641
F-0.6842488206178453
aF33.70428323813232
aF0.05884335374777967
aaa(lp642
(F-26.7
F53.0
tp643
a(lp644
F0.45338120759396344
aF34.190102685774754
aF0.060363151816722596
aaa(lp645
(F-8.899999999999999
F-53.0
tp646
a(lp647
F1.5737166292914677
aF30.9984024609215
aF0.05889535234029433
aaa(lp648
(F-8.899999999999999
F-35.33333333333333
tp649
a(lp650
F0.4365948179972341
aF31.541412625399925
aF0.060385700908120954
aaa(lp651
(F-8.899999999999999
F-17.666666666666664
tp652
a(lp653
F-0.6617251874180481
aF29.47508950615554
aF0.06189859856734585
aaa(lp654
(F-8.899999999999999
F0.0
tp655
a(lp656
F1.5913634949068172
aF33.71393538990634
aF0.05887280324889605
aaa(lp657
(F-8.899999999999999
F17.66666666666667
tp658
a(lp659
F-0.7010328217182934
aF30.987395476571706
aF0.05886590283917802
aaa(lp660
(F-8.899999999999999
F35.33333333333334
tp661
a(lp662
F0.45338120759396344
aF34.190102685774754
aF0.060363151816722596
aaa(lp663
(F-8.899999999999999
F53.0
tp664
a(lp665
F1.5913634949068172
aF33.71393538990634
aF0.05887280324889605
aaa(lp666
(F8.900000000000006
F-53.0
tp667
a(lp668
F1.5737166292914677
aF30.9984024609215
aF0.05889535234029433
aaa(lp669
(F8.900000000000006
F-35.33333333333333
tp670
a(lp671
F0.43632142725651246
aF35.10886520051784
aF0.05431935711301998
aaa(lp672
(F8.900000000000006
F-17.666666666666664
tp673
a(lp674
F0.45432694910069205
aF33.20287369993976
aF0.05735300517995313
aaa(lp675
(F8.900000000000006
F0.0
tp676
a(lp677
F0.45432694910069205
aF33.20287369993976
aF0.05735300517995313
aaa(lp678
(F8.900000000000006
F17.66666666666667
tp679
a(lp680
F0.43665950797534486
aF30.41561095889244
aF0.057375554271351395
aaa(lp681
(F8.900000000000006
F35.33333333333334
tp682
a(lp683
F0.45432694910069205
aF33.20287369993976
aF0.05735300517995313
aaa(lp684
(F8.900000000000006
F53.0
tp685
a(lp686
F0.45338120759396344
aF34.190102685774754
aF0.060363151816722596
aaa(lp687
(F26.700000000000003
F-53.0
tp688
a(lp689
F-0.7010328217182934
aF30.987395476571706
aF0.05886590283917802
aaa(lp690
(F26.700000000000003
F-35.33333333333333
tp691
a(lp692
F-1.7825401467218878
aF31.530942381173144
aF0.06035625140700457
aaa(lp693
(F26.700000000000003
F-17.666666666666664
tp694
a(lp695
F0.45432694910069205
aF33.20287369993976
aF0.05735300517995313
aaa(lp696
(F26.700000000000003
F0.0
tp697
a(lp698
F0.45357315593288394
aF28.842038549727114
aF0.06040897745766102
aaa(lp699
(F26.700000000000003
F17.66666666666667
tp700
a(lp701
F0.4365948179972341
aF31.541412625399925
aF0.060385700908120954
aaa(lp702
(F26.700000000000003
F35.33333333333334
tp703
a(lp704
F0.4365948179972341
aF31.541412625399925
aF0.060385700908120954
aaa(lp705
(F26.700000000000003
F53.0
tp706
a(lp707
F-0.7010328217182934
aF30.987395476571706
aF0.05886590283917802
aaa(lp708
(F44.5
F-53.0
tp709
a(lp710
F-0.7010328217182934
aF30.987395476571706
aF0.05886590283917802
aaa(lp711
(F44.5
F-35.33333333333333
tp712
a(lp713
F-2.028278337657555
aF29.15222251293476
aF0.05433595813346562
aaa(lp714
(F44.5
F-17.666666666666664
tp715
a(lp716
F-2.0484114921926477
aF32.15391494085633
aF0.05431245670330195
aaa(lp717
(F44.5
F0.0
tp718
a(lp719
F-1.9179826329298515
aF33.24859259285209
aF0.057322603340071505
aaa(lp720
(F44.5
F17.66666666666667
tp721
a(lp722
F0.43632142725651246
aF35.10886520051784
aF0.05431935711301998
aaa(lp723
(F44.5
F35.33333333333334
tp724
a(lp725
F-2.0484114921926477
aF32.15391494085633
aF0.05431245670330195
aaa(lp726
(F44.5
F53.0
tp727
a(lp728
F3.0453019620828354
aF34.070114787594854
aF0.05133865997736674
aaas.